(dp1
S'output'
p2
S'missing "pass" in view'
p3
sS'layer'
p4
S'ParserContainer'
p5
sS'code'
p6
S'response.write(\'<!DOCTYPE html>\\n<html lang="en">\\n\\n<head>\\n\\n    <meta charset="utf-8">\\n    <meta http-equiv="X-UA-Compatible" content="IE=edge">\\n    <meta name="viewport" content="width=device-width, initial-scale=1">\\n    <meta name="description" content="">\\n    <meta name="author" content="">\\n\\n    <title>Mess Administration Panel</title>\\n\\n    <!-- Bootstrap Core CSS -->\\n    <link href="\', escape=False)\nresponse.write(URL("static","css/bootstrap.min.css"))\nresponse.write(\'" rel="stylesheet">\\n\\n    <!-- Custom CSS -->\\n    <link href="\', escape=False)\nresponse.write(URL("static","css/sb-admin.css"))\nresponse.write(\'" rel="stylesheet">\\n\\n    <!-- Morris Charts CSS -->\\n    <link href="\', escape=False)\nresponse.write(URL("static","css/plugins/morris.css"))\nresponse.write(\'" rel="stylesheet">\\n\\n    <!-- Custom Fonts -->\\n    <link href="\', escape=False)\nresponse.write(URL("static","font-awesome/css/font-awesome.min.css"))\nresponse.write(\'" rel="stylesheet" type="text/css">\\n\\n    <!-- HTML5 Shim and Respond.js IE8 support of HTML5 elements and media queries -->\\n    <!-- WARNING: Respond.js doesn\\\'t work if you view the page via file:// -->\\n    <!--[if lt IE 9]>\\n        <script src="https://oss.maxcdn.com/libs/html5shiv/3.7.0/html5shiv.js"></script>\\n        <script src="https://oss.maxcdn.com/libs/respond.js/1.4.2/respond.min.js"></script>\\n    <![endif]-->\\n\\n</head>\\n\\n<body class="body_bg">\\n\\n    <div id="wrapper">\\n        <!-- Navigation -->\\n        <nav class="navbar navbar-inverse navbar-fixed-top" role="navigation">\\n            <!-- Brand and toggle get grouped for better mobile display -->\\n            <div class="navbar-header">\\n                <button type="button" class="navbar-toggle" data-toggle="collapse" data-target=".navbar-ex1-collapse">\\n                    <span class="sr-only">Toggle navigation</span>\\n                    <span class="icon-bar"></span>\\n                    <span class="icon-bar"></span>\\n                    <span class="icon-bar"></span>\\n                </button>\\n                <a class="navbar-brand" href="index.html">Mess Administration Panel</a>\\n            </div>\\n            <!-- Top Menu Items -->\\n            \', escape=False)\nif auth.user.account_class==\'Super_Admin\' or auth.user.account_class==\'Admin\':\n    response.write(\'\\n             <ul class="nav navbar-left top-nav">\\n                <li class="dropdown">\\n                    <a href="\', escape=False)\n    response.write(URL("appadmin","manage",args=["db_admin"]))\n    response.write(\'" class="dropdown-toggle" data-toggle="dropdown"><i class="fa fa-fw fa-gear"></i>Advanced Controls</a>\\n                </li>\\n             </ul>   \\n            \', escape=False)\n    pass\nresponse.write(\' \\n            <ul class="nav navbar-right top-nav">\\n                <li class="dropdown">\\n                    <a href="#" class="dropdown-toggle" data-toggle="dropdown"><i class="fa fa-envelope"></i> <b class="caret"></b></a>\\n                    <ul class="dropdown-menu message-dropdown">\\n                        \', escape=False)\nresponse.write(\'\\n                        \', escape=False)\nresponse.write(\'\\n                        <li class="message-footer">\\n                            <a href="#">Read All New Messages</a>\\n                        </li>\\n                    </ul>\\n                </li>\\n                <li class="dropdown">\\n                    <a href="#" class="dropdown-toggle" data-toggle="dropdown"><i class="fa fa-user"></i> \', escape=False)\nresponse.write((auth.user.first_name+\' \'+auth.user.last_name))\nresponse.write(\' <b class="caret"></b></a>\\n                    <ul class="dropdown-menu">\\n                        <li>\\n                            <a href="\', escape=False)\nresponse.write(URL("default","user/profile"))\nresponse.write(\'"><i class="fa fa-fw fa-user"></i> Profile</a>\\n                        </li>\\n                        <li>\\n                            <a href="\', escape=False)\nresponse.write(URL("default","after_login_index"))\nresponse.write(\'"><i class="fa fa-fw fa-user"></i> User Mode</a>\\n                        </li>\\n                        <li class="divider"></li>\\n                        <li>\\n                            <a href="\', escape=False)\nresponse.write(URL("default","user/logout"))\nresponse.write(\'"><i class="fa fa-fw fa-power-off"></i> Log Out</a>\\n                        </li>\\n                    </ul>\\n                </li>\\n            </ul>\\n\\n            \', escape=False)\nmeals_name=db(db.Meal.id>0).select(db.Meal.ALL)\nresponse.write(\'\\n            <!-- Sidebar Menu Items - These collapse to the responsive navigation menu on small screens -->\\n            <div class="collapse navbar-collapse navbar-ex1-collapse">\\n                <ul class="nav navbar-nav side-nav">\\n                    <li class="active">\\n                        <a href="\', escape=False)\nresponse.write(URL("default_admin","index"))\nresponse.write(\'"><i class="fa fa-fw fa-dashboard"></i> Dashboard</a>\\n                    </li>\\n                    <li>\\n                         <a href="javascript:;" data-toggle="collapse" data-target="#demo"><i class="fa fa-fw fa-edit"></i> Set Mess Menu</a>\\n                        <ul id="demo" class="collapse">\\n                            <li>\\n                                <a href="javascript:;" data-toggle="collapse" data-target="#monday">Monday</a>\\n                                <ul id="monday" class="collapse">\\n                                    \', escape=False)\nfor meals in meals_name:\n    response.write(\'\\n                                        <li>\\n                                            <a href="\', escape=False)\n    response.write(URL(\'default_admin\',\'set_mess_menu\',vars={\'dayw\':\'Monday\',\'mealname\':meals.meal_name}))\n    response.write(\'">\', escape=False)\n    response.write(meals.meal_name)\n    response.write(\'</a>\\n                                        </li>\\n                                    \', escape=False)\n    pass\nresponse.write(\'\\n                                </ul>\\n                            </li>\\n                            <li>\\n                                <a href="javascript:;" data-toggle="collapse" data-target="#tuesday">Tuesday</a>\\n                                <ul id="tuesday" class="collapse">\\n                                    \', escape=False)\nfor meals in meals_name:\n    response.write(\'\\n                                        <li>\\n                                            <a href="\', escape=False)\n    response.write(URL(\'default_admin\',\'set_mess_menu\',vars={\'dayw\':\'Tuesday\',\'mealname\':meals.meal_name}))\n    response.write(\'">\', escape=False)\n    response.write(meals.meal_name)\n    response.write(\'</a>\\n                                        </li>\\n                                    \', escape=False)\n    pass\nresponse.write(\'\\n                                </ul>\\n                            </li>\\n                             <li>\\n                                <a href="javascript:;" data-toggle="collapse" data-target="#wednesday">Wednesday</a>\\n                                <ul id="wednesday" class="collapse">\\n                                    \', escape=False)\nfor meals in meals_name:\n    response.write(\'\\n                                        <li>\\n                                            <a href="\', escape=False)\n    response.write(URL(\'default_admin\',\'set_mess_menu\',vars={\'dayw\':\'Wednesday\',\'mealname\':meals.meal_name}))\n    response.write(\'">\', escape=False)\n    response.write(meals.meal_name)\n    response.write(\'</a>\\n                                        </li>\\n                                    \', escape=False)\n    pass\nresponse.write(\'\\n                                </ul>                            \\n                            </li>\\n                            <li>\\n                                <a href="javascript:;" data-toggle="collapse" data-target="#thursday">Thursday</a>\\n                                <ul id="thursday" class="collapse">\\n                                    \', escape=False)\nfor meals in meals_name:\n    response.write(\'\\n                                        <li>\\n                                            <a href="\', escape=False)\n    response.write(URL(\'default_admin\',\'set_mess_menu\',vars={\'dayw\':\'Thursday\',\'mealname\':meals.meal_name}))\n    response.write(\'">\', escape=False)\n    response.write(meals.meal_name)\n    response.write(\'</a>\\n                                        </li>\\n                                    \', escape=False)\n    pass\nresponse.write(\'\\n                                </ul>                            \\n                            </li>\\n                            <li>\\n                                <a href="javascript:;" data-toggle="collapse" data-target="#friday">Friday</a>\\n                                <ul id="friday" class="collapse">\\n                                    \', escape=False)\nfor meals in meals_name:\n    response.write(\'\\n                                        <li>\\n                                            <a href="\', escape=False)\n    response.write(URL(\'default_admin\',\'set_mess_menu\',vars={\'dayw\':\'Friday\',\'mealname\':meals.meal_name}))\n    response.write(\'">\', escape=False)\n    response.write(meals.meal_name)\n    response.write(\'</a>\\n                                        </li>\\n                                    \', escape=False)\n    pass\nresponse.write(\'\\n                                </ul>\\n                            </li>\\n                            <li>\\n                                <a href="javascript:;" data-toggle="collapse" data-target="#saturday">Saturday</a>\\n                                <ul id="saturday" class="collapse">\\n                                    \', escape=False)\nfor meals in meals_name:\n    response.write(\'\\n                                        <li>\\n                                            <a href="\', escape=False)\n    response.write(URL(\'default_admin\',\'set_mess_menu\',vars={\'dayw\':\'Saturday\',\'mealname\':meals.meal_name}))\n    response.write(\'">\', escape=False)\n    response.write(meals.meal_name)\n    response.write(\'</a>\\n                                        </li>\\n                                    \', escape=False)\n    pass\nresponse.write(\'\\n                                </ul>\\n                            </li>\\n                            <li>\\n                                <a href="javascript:;" data-toggle="collapse" data-target="#sunday">Sunday</a>\\n                                <ul id="sunday" class="collapse">\\n                                    \', escape=False)\nfor meals in meals_name:\n    response.write(\'\\n                                        <li>\\n                                            <a href="\', escape=False)\n    response.write(URL(\'default_admin\',\'set_mess_menu\',vars={\'dayw\':\'Sunday\',\'mealname\':meals.meal_name}))\n    response.write(\'">\', escape=False)\n    response.write(meals.meal_name)\n    response.write(\'</a>\\n                                        </li>\\n                                    \', escape=False)\n    pass\nresponse.write(\'\\n                                </ul>\\n                            </li>\\n                        </ul>\\n                    </li>\\n                    <li>\\n                        <a href="\', escape=False)\nresponse.write(URL("default_admin","set_account_balance"))\nresponse.write(\'"><i class="fa fa-fw fa-edit"></i>Set Account Balance</a>\\n                    </li>\\n                    <li>\\n                        <a href="\', escape=False)\nresponse.write(URL("default_admin","set_meal_timings"))\nresponse.write(\'"><i class="fa fa-fw fa-edit"></i>Set Meal Timings</a>\\n                    </li>\\n                    <li>\\n                        <a href="\', escape=False)\nresponse.write(URL("default_admin","set_meal_rates"))\nresponse.write(\'"><i class="fa fa-fw fa-edit"></i>Set Meal Rates</a>\\n                    </li>\\n                    <li>\\n                        <a href="\', escape=False)\nresponse.write(URL("default_admin","set_mess_places"))\nresponse.write(\'"><i class="fa fa-fw fa-edit"></i>Set Mess Places</a>\\n                    </li>\\n                    <li>\\n                        <a href="javascript:;" data-toggle="collapse" data-target="#demo1"><i class="fa fa-fw fa-user"></i> Manage People</a>\\n                        <ul id="demo1" class="collapse">\\n                            <li>\\n                                <a href="\', escape=False)\nresponse.write(URL("default_admin","manage_student"))\nresponse.write(\'">Students</a>\\n                            </li>\\n                            <li>\\n                                <a href="\', escape=False)\nresponse.write(URL("default_admin","manage_faculty"))\nresponse.write(\'">Faculty</a>\\n                            </li>\\n                            <li>\\n                                <a href="\', escape=False)\nresponse.write(URL("default_admin","manage_committee"))\nresponse.write(\'">Mess-Committee Members</a>\\n                            </li>\\n                            <li>\\n                                <a href="\', escape=False)\nresponse.write(URL("default_admin","manage_caterer"))\nresponse.write(\'">Mess-Caterers</a>\\n                            </li>\\n                        </ul>\\n                    </li>\\n                </ul>\\n            </div>\\n            <!-- /.navbar-collapse -->\\n        </nav>\\n\\n        <div id="page-wrapper">\\n\\n            <div class="container-fluid">\\n\\n                <!-- Page Heading -->\\n               \', escape=False)\nresponse.write(\'\\n<h3>\\n\\tUnread Complaints\\n</h3>\\n<ul class>\\n\\t\', escape=False)\nfor comp in unread_complaints:\n    response.write(\'\\n\\t\\t<li>\\n\\t\\t\\t<div class="well">\\n\\t\\t\\t\\t<h4>Subject : \', escape=False)\n    response.write(comp.complaint_subject)\n    response.write(\'</h4>\\n\\t\\t\\t\\t<h6>\', escape=False)\n    response.write(comp.complaint_register_content)\n    response.write(\'</h6>\\n\\t\\t\\t</div>\\n\\t\\t</li>\\n</ul>\\n<h3>\\n\\tRead Complaints\\n</h3>\\n<ul class>\\n\\t\', escape=False)\n    for comp in read_complaints:\n        response.write(\'\\n\\t\\t<li>\\n\\t\\t\\t<div class="well">\\n\\t\\t\\t\\t<h4>Subject : \', escape=False)\n        response.write(comp.complaint_subject)\n        response.write(\'</h4>\\n\\t\\t\\t\\t<h6>\', escape=False)\n        response.write(comp.complaint_register_content)\n        response.write(\'</h6>\\n\\t\\t\\t</div>\\n\\t\\t</li>\\n</ul>\\n\', escape=False)\n        response.write(\'\\n\\n            </div>\\n            <!-- /.container-fluid -->\\n\\n        </div>\\n        <!-- /#page-wrapper -->\\n\\n    </div>\\n    <!-- /#wrapper -->\\n\\n    <!-- jQuery -->\\n    <script src="\', escape=False)\n        response.write(URL("static","js/jquery.js"))\n        response.write(\'"></script>\\n    <script>\\n        $(document).ready(function(){\\n        $(\\\'[data-toggle="tooltip"]\\\').tooltip();   \\n    });\\n    </script>\\n\\n    <!-- Morris Charts JavaScript -->\\n    <script src="\', escape=False)\n        response.write(URL("static","js/raphael.min.js"))\n        response.write(\'"></script>\\n    <script src="\', escape=False)\n        response.write(URL("static","js/morris.min.js"))\n        response.write(\'"></script>\\n    <script src="\', escape=False)\n        response.write(URL("static","js/morris-data.js"))\n        response.write(\'"></script>\\n\\n    <script src="\', escape=False)\n        response.write(URL(\'static\',\'js/bootstrap.min.js\'))\n        response.write(\'"></script>\\n    <script src="\', escape=False)\n        response.write(URL(\'static\',\'js/web2py-bootstrap3.js\'))\n        response.write(\'"></script>\\n    \', escape=False)\n        response.write(\'\\n    \', escape=False)\n        if response.google_analytics_id:\n            response.write(\'\\n    <!-- Analytics ==================================== -->\\n    <script src="\', escape=False)\n            response.write(URL(\'static\',\'js/analytics.min.js\'))\n            response.write(\'"></script>\\n    <script type="text/javascript">\\n      analytics.initialize({\\n      \\\'Google Analytics\\\':{trackingId:\\\'\', escape=False)\n            response.write(response.google_analytics_id)\n            response.write("\'}\\n      });\\n    </script>\\n    ", escape=False)\n            pass\n        response.write(\'\\n\\n</body>\\n\\n</html>\\n\', escape=False)'
p7
sS'snapshot'
p8
(dp9
S'exception'
p10
(dp11
S'__module__'
p12
S"'gluon.rocket'"
p13
sS'__getslice__'
p14
S"<method-wrapper '__getslice__' of SocketTimeout object>"
p15
sS'__str__'
p16
S"<method-wrapper '__str__' of SocketTimeout object>"
p17
sS'__reduce__'
p18
S'<built-in method __reduce__ of SocketTimeout object>'
p19
sS'__dict__'
p20
S'{}'
p21
sS'__sizeof__'
p22
S'<built-in method __sizeof__ of SocketTimeout object>'
p23
sS'__weakref__'
p24
S'None'
p25
sS'__init__'
p26
S"<method-wrapper '__init__' of SocketTimeout object>"
p27
sS'__setattr__'
p28
S"<method-wrapper '__setattr__' of SocketTimeout object>"
p29
sS'__reduce_ex__'
p30
S'<built-in method __reduce_ex__ of SocketTimeout object>'
p31
sS'__new__'
p32
S'<built-in method __new__ of type object>'
p33
sS'__format__'
p34
S'<built-in method __format__ of SocketTimeout object>'
p35
sS'__class__'
p36
S"<class 'gluon.rocket.SocketTimeout'>"
p37
sS'__doc__'
p38
S"'Exception for when a socket times out between requests.'"
p39
sS'__getitem__'
p40
S"<method-wrapper '__getitem__' of SocketTimeout object>"
p41
sS'__setstate__'
p42
S'<built-in method __setstate__ of SocketTimeout object>'
p43
sS'__getattribute__'
p44
S"<method-wrapper '__getattribute__' of SocketTimeout object>"
p45
sS'args'
p46
S"('Socket timed out before request.',)"
p47
sS'__subclasshook__'
p48
S'<built-in method __subclasshook__ of type object>'
p49
sS'__unicode__'
p50
S'<built-in method __unicode__ of SocketTimeout object>'
p51
sS'__delattr__'
p52
S"<method-wrapper '__delattr__' of SocketTimeout object>"
p53
sS'__repr__'
p54
S"<method-wrapper '__repr__' of SocketTimeout object>"
p55
sS'__hash__'
p56
S"<method-wrapper '__hash__' of SocketTimeout object>"
p57
ssS'evalue'
p58
S'Socket timed out before request.'
p59
sS'frames'
p60
(lp61
(dp62
S'file'
p63
S'/home/scorpio/web2py/gluon/rocket.py'
p64
sS'dump'
p65
(dp66
S'self'
p67
S'<WSGIWorker(Thread-8, started daemon -1314936000)>'
p68
sS'conn'
p69
S'<gluon.rocket.Connection object>'
p70
sS'self.run_app'
p71
S'<bound method WSGIWorker.run_app of <WSGIWorker(Thread-8, started daemon -1314936000)>>'
p72
ssS'lnum'
p73
I1337
sS'lines'
p74
(dp75
I1332
S'            # Enter connection serve loop'
p76
sI1333
S'            while True:'
p77
sI1334
S'                if __debug__:'
p78
sI1335
S"                    self.err_log.debug('Serving a request')"
p79
sI1336
S'                try:'
p80
sI1337
S'                    self.run_app(conn)'
p81
sI1338
S'                except:'
p82
sI1339
S'                    exc = sys.exc_info()'
p83
sI1340
S'                    handled = self._handleError(*exc)'
p84
sI1341
S'                    if handled:'
p85
ssS'call'
p86
S'(self=<WSGIWorker(Thread-8, started daemon -1314936000)>)'
p87
sS'func'
p88
S'run'
p89
sa(dp90
g63
S'/home/scorpio/web2py/gluon/rocket.py'
p91
sg65
(dp92
S'self'
p93
S'<WSGIWorker(Thread-8, started daemon -1314936000)>'
p94
sS'self.environ'
p95
S"{'HTTP_ACCEPT': 'text/html,application/xhtml+xml,application/xml;q=0.9,*/*;q=0.8', 'HTTP_ACCEPT_ENCODING': 'gzip, deflate', 'HTTP_ACCEPT_LANGUAGE': 'en-US,en;q=0.5', 'HTTP_CONNECTION': 'keep-alive', 'HTTP_COOKIE': 'session_id_welcome=127.0.0.1-8cb80b68-3aad-4157-...v1=127.0.0.1-00327cab-5014-423f-91ea-7486cf991bee', 'HTTP_HOST': '127.0.0.1:8000', 'HTTP_REFERER': 'http://127.0.0.1:8000/mess_menu_v1/default_admin/index', 'HTTP_USER_AGENT': 'Mozilla/5.0 (X11; Ubuntu; Linux i686; rv:41.0) Gecko/20100101 Firefox/41.0', 'PATH_INFO': '/mess_menu_v1/default_admin/manage_complaints', 'QUERY_STRING': '', ...}"
p96
sS'sock_file'
p97
S'<socket._fileobject object>'
p98
sS'environ'
p99
S'undefined'
p100
sS'self.build_environ'
p101
S'<bound method WSGIWorker.build_environ of <WSGIWorker(Thread-8, started daemon -1314936000)>>'
p102
sS'conn'
p103
S'<gluon.rocket.Connection object>'
p104
ssg73
I1830
sg74
(dp105
I1825
S'        else:'
p106
sI1826
S'            sock_file = conn.makefile(BUF_SIZE)'
p107
sI1827
S''
sI1828
S'        try:'
p108
sI1829
S'            # Read the headers and build our WSGI environment'
p109
sI1830
S'            self.environ = environ = self.build_environ(sock_file, conn)'
p110
sI1831
S''
sI1832
S'            # Handle 100 Continue'
p111
sI1833
S"            if environ.get('HTTP_EXPECT', '') == '100-continue':"
p112
sI1834
S"                res = environ['SERVER_PROTOCOL'] + ' 100 Continue\\r\\n\\r\\n'"
p113
ssg86
S'(self=<WSGIWorker(Thread-8, started daemon -1314936000)>, conn=<gluon.rocket.Connection object>)'
p114
sg88
S'run_app'
p115
sa(dp116
g63
S'/home/scorpio/web2py/gluon/rocket.py'
p117
sg65
(dp118
S'sock_file'
p119
S'<socket._fileobject object>'
p120
sS'self.read_request_line'
p121
S'<bound method WSGIWorker.read_request_line of <WSGIWorker(Thread-8, started daemon -1314936000)>>'
p122
sS'self'
p123
S'<WSGIWorker(Thread-8, started daemon -1314936000)>'
p124
sS'request'
p125
g100
ssg73
I1650
sg74
(dp126
I1645
S'                                      "wsgiorg.futures": executor.futures})'
p127
sI1646
S''
sI1647
S'    def build_environ(self, sock_file, conn):'
p128
sI1648
S'        """ Build the execution environment. """'
p129
sI1649
S'        # Grab the request line'
p130
sI1650
S'        request = self.read_request_line(sock_file)'
p131
sI1651
S''
sI1652
S'        # Copy the Base Environment'
p132
sI1653
S'        environ = self.base_environ.copy()'
p133
sI1654
S''
ssg86
S'(self=<WSGIWorker(Thread-8, started daemon -1314936000)>, sock_file=<socket._fileobject object>, conn=<gluon.rocket.Connection object>)'
p134
sg88
S'build_environ'
p135
sa(dp136
g63
S'/home/scorpio/web2py/gluon/rocket.py'
p137
sg65
(dp138
S'global SocketTimeout'
p139
S"<class 'gluon.rocket.SocketTimeout'>"
p140
ssg73
I1401
sg74
(dp141
I1396
S''
sI1397
S'                d = sock_file.readline()'
p142
sI1398
S'                if PY3K:'
p143
sI1399
S"                    d = d.decode('ISO-8859-1')"
p144
sI1400
S'        except socket.timeout:'
p145
sI1401
S"            raise SocketTimeout('Socket timed out before request.')"
p146
sI1402
S'        except TypeError:'
p147
sI1403
S'            raise SocketClosed('
p148
sI1404
S"                'SSL bug caused closure of socket.  See '"
p149
sI1405
S'                \'"https://groups.google.com/d/topic/web2py/P_Gw0JxWzCs".\')'
p150
ssg86
S'(self=<WSGIWorker(Thread-8, started daemon -1314936000)>, sock_file=<socket._fileobject object>)'
p151
sg88
S'read_request_line'
p152
sasS'pyver'
p153
S'Python 2.7.6: /usr/bin/python (prefix: /usr)'
p154
sS'etype'
p155
S"<class 'gluon.rocket.SocketTimeout'>"
p156
sS'date'
p157
S'Sat Oct 31 11:38:13 2015'
p158
sS'locals'
p159
(dp160
S'sock_file'
p161
S'<socket._fileobject object>'
p162
sS'self'
p163
S'<WSGIWorker(Thread-8, started daemon -1314936000)>'
p164
sssS'traceback'
p165
S'Traceback (most recent call last):\n  File "/home/scorpio/web2py/gluon/rocket.py", line 1337, in run\n    self.run_app(conn)\n  File "/home/scorpio/web2py/gluon/rocket.py", line 1830, in run_app\n    self.environ = environ = self.build_environ(sock_file, conn)\n  File "/home/scorpio/web2py/gluon/rocket.py", line 1650, in build_environ\n    request = self.read_request_line(sock_file)\n  File "/home/scorpio/web2py/gluon/rocket.py", line 1401, in read_request_line\n    raise SocketTimeout(\'Socket timed out before request.\')\nSocketTimeout: Socket timed out before request.\n'
p166
s.