(dp1
S'output'
p2
S"<type 'exceptions.TypeError'> unsupported operand type(s) for -: 'str' and 'str'"
p3
sS'layer'
p4
S'/home/scorpio/web2py/applications/mess_menu_v1/controllers/default.py'
p5
sS'code'
p6
S'# -*- coding: utf-8 -*-\n# this file is released under public domain and you can use without limitations\n\n#########################################################################\n## This is a sample controller\n## - index is the default action of any application\n## - user is required for authentication and authorization\n## - download is for downloading files uploaded in the db (does streaming)\n#########################################################################\nimport datetime\n\ndef oncompare_time(food_meal,food_date):\n    food_time=db(food_meal==db.Meal.meal_name).select(db.Meal.ALL)\n    diff_datetime=datetime.datetime(\n        food_date.year,\n        food_date.month,\n        food_date.day)\n    \n    return True\n\n\n\ndays=[\'Monday\',\'Tuesday\',\'Wednesday\',\'Thursday\',\'Friday\',\'Saturday\',\'Sunday\']\nmenu_data={}\nmenu_timings=db().select(db.Meal.meal_name)\ndef classify_menu():\n    for row1 in db().select(db.mess_provider.place_of_mess, distinct=True):\n        p=row1.place_of_mess\n        Cater_Name={}\n        for row2 in db(p==db.mess_provider.place_of_mess).select(db.mess_provider.caterer_name,distinct=True):\n            c=row2.caterer_name\n            d=[[],[],[],[],[],[],[]]\n            for ss in range(7):\n                for add in range(len(menu_timings)):\n                    d[ss].append([])\n            for row3 in db(p==db.mess_menu.place_of_mess and c==db.mess_menu.caterer_name).select():\n                for i in range(7):\n                    if row3.week_day==days[i]:\n                        for k in range(len(menu_timings)):\n                            if row3.mess_time==menu_timings[k].meal_name:\n                                d[i][k].append(row3.eating_item)\n                                break\n                        break\n            Cater_Name[c]=d\n        menu_data[p]=Cater_Name\n\ndef index():\n    """\n    example action using the internationalization operator T and flash\n    rendered by views/default/index.html or views/generic.html\n\n    if you need a simple wiki simply replace the two lines below with:\n    return auth.wiki()\n    """\n    #response.flash = T("Hello World")\n    return dict(message=auth.user)\n\ndef mess_menu():\n    classify_menu()\n    return dict(menu_data=menu_data,days=days,menu_timing=menu_timings)\n\n@auth.requires_login()\ndef reserve_meal():\n\n    form1=SQLFORM.factory(\n                Field(\'reserve_eating_place\',label=\'Mess Place\',requires=IS_IN_DB(db,\'mess_provider.place_of_mess\')),\n                Field(\'reserve_caterer\',label=\'Caterer\',requires=IS_IN_DB(db,\'mess_provider.caterer_name\')),\n                Field(\'reserve_start_date\',\'date\',label=\'Start Date\'),\n                Field(\'reserve_end_date\',\'date\',label=\'End Date\'),\n                Field(\'reserve_start_meal\',label=\'Start Meal\',requires=IS_IN_DB(db,\'Meal.meal_name\')),\n                Field(\'reserve_end_meal\',label=\'End Meal\',requires=IS_IN_DB(db,\'Meal.meal_name\')))\n    \n    if form1.process().accepted:\n        deduction=0\n        #date_list=map(int,form1.vars.reserve_start_date.split(\'-\'))\n        start=form1.vars.reserve_start_date\n        #date_list=map(int,form1.vars.reserve_end_date.split(\'-\'))\n        end=form1.vars.reserve_end_date\n        meal_s=form1.vars.reserve_start_meal\n        meal_e=form1.vars.reserve_end_meal\n        delta=end-start\n        meal_list=db().select(db.Meal.meal_name)\n        #redirect(URL(\'default\',\'index/\'+str(len(meal_list))))\n        rate_list=db().select(db.Meal.meal_rate)\n        if (delta.days-1)<0:\n            start_pos=0\n            end_pos=0\n            for i in range(len(meal_list)):\n                if meal_list[i].meal_name==meal_s:\n                    start_pos=i\n                    break\n            for i in range(len(meal_list)):\n                if meal_list[i].meal_name==meal_e:\n                    end_pos=i\n                    break\n            j=start_pos\n\n            while j<=end_pos:\n                row=db(auth.user.id==db.reserve_food.author_id).select(db.reserve_food.ALL)\n                found=False\n                for x in row:\n                    if (x.reserve_meal==meal_list[j].meal_name and x.reserve_date==form1.vars.reserve_start_date):\n                        found=True\n                        break\n                if not found:\n                    db.reserve_food.insert(\n                        reserve_eating_place=form1.vars.reserve_eating_place,\n                        reserve_caterer=form1.vars.reserve_caterer,\n                        reserve_date=form1.vars.reserve_start_date,\n                        reserve_meal=meal_list[j].meal_name,\n                        author_id=auth.user.id)\n                    deduction=deduction+int(rate_list[j].meal_rate)\n                j=j+1\n        \n        else:\n            start_pos=0\n            end_pos=0\n            for i in range(len(meal_list)):\n                if meal_list[i].meal_name==meal_s:\n                    start_pos=i\n                    break\n            for i in range(len(meal_list)):\n                if meal_list[i].meal_name==meal_e:\n                    end_pos=i\n                    break\n            j=start_pos\n            while j<range(len(meal_list)):\n                row=db(auth.user.id==db.reserve_food.author_id).select(db.reserve_food.ALL)\n                found=False\n                if j>=len(meal_list):\n                    break\n                for x in row:\n                    if (x.reserve_meal==meal_list[j].meal_name and x.reserve_date==form1.vars.reserve_start_date):\n                        found=True\n                        break\n                if not found:\n                    db.reserve_food.insert(\n                        reserve_eating_place=form1.vars.reserve_eating_place,\n                        reserve_caterer=form1.vars.reserve_caterer,\n                        reserve_date=form1.vars.reserve_start_date,\n                        reserve_meal=meal_list[j].meal_name,\n                        author_id=auth.user.id)\n                    deduction=deduction+int(rate_list[j].meal_rate)\n                j=j+1\n            j=0\n            while j<=end_pos:\n                row=db(auth.user.id==db.reserve_food.author_id).select(db.reserve_food.ALL)\n                found=False\n                for x in row:\n                    if (x.reserve_meal==meal_list[j].meal_name and x.reserve_date==form1.vars.reserve_start_date):\n                        found=True\n                        break\n                if not found:\n                    db.reserve_food.insert(\n                        reserve_eating_place=form1.vars.reserve_eating_place,\n                        reserve_caterer=form1.vars.reserve_caterer,\n                        reserve_date=form1.vars.reserve_end_date,\n                        reserve_meal=meal_list[j].meal_name,\n                        author_id=auth.user.id)\n                    deduction=deduction+int(rate_list[j].meal_rate)\n                j=j+1\n\n            i=0\n            number_of_entry=delta.days-1\n            start=start+datetime.timedelta(days=1)\n            while i<number_of_entry:\n                #temp=start.year+\'-\'+start.month+\'-\'+start.day\n                for j in range(len(meal_list)):\n                    row=db(auth.user.id==db.reserve_food.author_id).select(db.reserve_food.ALL)\n                    found=False\n                    for x in row:\n                        if (x.reserve_meal==meal_list[j].meal_name and x.reserve_date==start):\n                            found=True\n                            break\n                    if not found:\n                        db.reserve_food.insert(\n                            reserve_eating_place=form1.vars.reserve_eating_place,\n                            reserve_caterer=form1.vars.reserve_caterer,\n                            reserve_date=start,\n                            reserve_meal=meal_list[j].meal_name,\n                            author_id=auth.user.id)\n                        deduction=deduction+int(rate_list[j].meal_rate)\n                start=start+datetime.timedelta(days=1)\n                i=i+1\n        \n        if (int(auth.user.account_curr_balance)-deduction)<0:\n            if auth.account_type==\'Student\':\n                response.flash=\'\'\'Account Balance can\'t be negative. Please contact Mess Administrator\'\'\'\n            else:\n                auth.user.account_curr_balance=str(int(auth.user.account_curr_balance)-deduction)\n                caterer_booked=db(db.mess_provider.caterer_name==form1.vars.reserve_caterer).select(db.mess_provider.ALL)\n                db(db.mess_provider.id==caterer_booked[0].id).update(\n                    account_curr_balance=str(int(caterer_booked[0].account_curr_balance)+deduction))\n                db(db.auth_user.id==auth.user.id).update(\n                    account_curr_balance=auth.user.account_curr_balance)\n                response.flash=\'\'\'Your food is successfully reserved\'\'\'\n        else:\n            auth.user.account_curr_balance=str(int(auth.user.account_curr_balance)-deduction)\n            caterer_booked=db(db.mess_provider.caterer_name==form1.vars.reserve_caterer).select(db.mess_provider.id,db.mess_provider.account_curr_balance)\n            db(db.mess_provider.id==caterer_booked[0].id).update(\n                account_curr_balance=str(int(caterer_booked[0].account_curr_balance)+deduction))\n            db(db.auth_user.id==auth.user.id).update(\n                account_curr_balance=auth.user.account_curr_balance)\n            response.flash=\'\'\'Your food is successfully reserved\'\'\' \n    return locals()\n\n@auth.requires_login()\ndef manage_cancellation(table,row_id):\n    #redirect(URL(\'default\',\'manage_cancellation\'))\n    temp=db(row_id==db.reserve_food.id).select(db.reserve_food.ALL)\n    mymealname=temp[0].reserve_meal\n    cat_name=temp[0].reserve_caterer\n    y=db(db.Meal.meal_name==mymealname).select(db.Meal.ALL)\n    auth.user.account_curr_balance=auth.user.account_curr_balance+y[0].meal_rate\n    c=db(db.mess_provider.caterer_name==cat_name).select(db.mess_provider.ALL)\n    caterer_b=c[0].account_curr_balance-y[0].meal_rate\n    db(temp[0].author_id==db.auth_user.id).update(account_curr_balance=auth.user.account_curr_balance)\n    db(c[0].id==db.mess_provider.id).update(account_curr_balance=caterer_b)\n    db(row_id==db.reserve_food.id).delete()\n\n@auth.requires_login()\ndef cancel_meal():\n    query=((db.reserve_food.author_id==auth.user.id))\n    fields=(db.reserve_food.reserve_meal,\n            db.reserve_food.reserve_date,\n            db.reserve_food.reserve_eating_place,\n            db.reserve_food.reserve_caterer)\n    headers={\n    \'reserve_food.reserve_meal\':\'Booked Meals\',\n    \'reserve_food.reserve_date\':\'Booking Date\',\n    \'reserve_food.reserve_eating_place\':\'Booked Mess\',\n    \'reserve_food.reserve_caterer\':\'Booked Caterer\'\n    }\n    default_sort_order=[~db.reserve_food.reserve_date,]\n    grid1=SQLFORM.grid(query=query, fields=fields, headers=headers, orderby=default_sort_order,\n                create=False, deletable=True, editable=False,ondelete=manage_cancellation)\n    return locals()\n\ndef mess_people():\n    return locals()\n\ndef mess_incharge():\n    row=db(db.auth_user.account_class==\'Admin\').select(db.auth_user.first_name,db.auth_user.last_name,db.auth_user.phone_number)\n    return locals()\n\ndef mess_commitee():\n    row=db(db.auth_user.account_class==\'Mess Committee\').select(db.auth_user.first_name,db.auth_user.last_name,db.auth_user.phone_number)\n    return locals()\n\ndef mess_caterer():\n    row=db().select(db.mess_provider.caterer_name,db.mess_provider.phone_number,db.mess_provider.email)\n    return locals()\n\ndef general_notifications():\n    return locals()\n\n@auth.requires_login()\ndef complaint_section():\n    form1=SQLFORM(db.complaint_register).process()\n    return locals()\n\n@auth.requires_login()\ndef discussion_forum():\n    return locals()\n\n@auth.requires_login()\ndef account_details():\n    db.auth_user.account_curr_balance.writable=False\n    db.auth_user.account_initial_balance.writable=False\n    db.auth_user.account_curr_balance.readable=False\n    db.auth_user.account_initial_balance.readable=False\n    return dict(form=auth.profile())\n\n#@auth.requires_login()\ndef admin_change_remove():\n    if request.vars.modify==\'People\':\n        db.auth_user.id.readable=False\n        db.auth_user.account_curr_balance.writable=True\n        db.auth_user.account_initial_balance.writable=True\n        query=((db.auth_user.account_class!=\'Admin\' or db.auth_user.id!=auth.user.id))\n        fields=(db.auth_user.first_name,db.auth_user.last_name,db.auth_user.email,db.auth_user.account_curr_balance)\n        headers={\n        \'auth_user.first_name\':"First Name",\n        \'auth_user.last_name\':"Last Name",\n        \'auth_user.email\':"Email",\n        \'auth_user.account_curr_balance\':"Current Account Balance"\n        }\n        default_sort_order=[db.auth_user.first_name]\n\n        grid1=SQLFORM.grid(query=query, fields=fields, headers=headers, orderby=default_sort_order,\n                create=True, deletable=True, editable=True)\n    elif request.vars.modify==\'Caterer\':\n        db.mess_provider.id.readable=False\n        db.mess_provider.account_curr_balance.writable=True\n        db.mess_provider.account_curr_balance.readable=True\n        fields=(\n            db.mess_provider.caterer_name,\n            db.mess_provider.email,\n            db.mess_provider.account_curr_balance,\n            db.mess_provider.phone_number)\n        query=db.mess_provider.id>0\n        headers={\n        \'mess_provider.caterer_name\':"Caterer Name",\n        \'mess_provider.email\':"Email",\n        \'mess_provider.account_curr_balance\':"Current Account Balance",\n        \'mess_provider.phone_number\':"Phone number",\n        }\n        default_sort_order=[db.mess_provider.caterer_name]\n        grid1=SQLFORM.grid(\n                query=query,\n                fields=fields,\n                headers=headers,\n                orderby=default_sort_order,\n                create=True,\n                deletable=True,\n                editable=True)\n    elif request.vars.modify==\'Mess_Place\':\n        form1=SQLFORM.grid(db.mess_places,editable=False,orderby=[db.mess_places.place_name]);\n    else:\n        h=\'Invalid Page\'\n        redirect(URL(\'default\',\'index\'))\n    return locals()\n\ndef user():\n    """\n    exposes:\n    http://..../[app]/default/user/login\n    http://..../[app]/default/user/logout\n    http://..../[app]/default/user/register\n    http://..../[app]/default/user/profile\n    http://..../[app]/default/user/retrieve_password\n    http://..../[app]/default/user/change_password\n    http://..../[app]/default/user/manage_users (requires membership in\n    http://..../[app]/default/user/bulk_register\n    use @auth.requires_login()\n        @auth.requires_membership(\'group name\')\n        @auth.requires_permission(\'read\',\'table name\',record_id)\n    to decorate functions that need access control\n    """\n    if request.args(0)==\'profile\':\n        db.auth_user.account_curr_balance.writable=False\n        db.auth_user.account_initial_balance.writable=False\n        db.auth_user.account_curr_balance.readable=True\n        db.auth_user.account_initial_balance.readable=True\n    return dict(form=auth())\n\n@cache.action()\ndef download():\n    """\n    allows downloading of uploaded files\n    http://..../[app]/default/download/[filename]\n    """\n    return response.download(request, db)\n\n\ndef call():\n    """\n    exposes services. for example:\n    http://..../[app]/default/call/jsonrpc\n    decorate with @services.jsonrpc the functions to expose\n    supports xml, json, xmlrpc, jsonrpc, amfrpc, rss, csv\n    """\n    return service()\n\nresponse._vars=response._caller(cancel_meal)\n'
p7
sS'snapshot'
p8
(dp9
S'exception'
p10
(dp11
S'__hash__'
p12
S"<method-wrapper '__hash__' of exceptions.TypeError object>"
p13
sS'__setattr__'
p14
S"<method-wrapper '__setattr__' of exceptions.TypeError object>"
p15
sS'__reduce_ex__'
p16
S'<built-in method __reduce_ex__ of exceptions.TypeError object>'
p17
sS'__getslice__'
p18
S"<method-wrapper '__getslice__' of exceptions.TypeError object>"
p19
sS'__getitem__'
p20
S"<method-wrapper '__getitem__' of exceptions.TypeError object>"
p21
sS'__setstate__'
p22
S'<built-in method __setstate__ of exceptions.TypeError object>'
p23
sS'__reduce__'
p24
S'<built-in method __reduce__ of exceptions.TypeError object>'
p25
sS'__str__'
p26
S"<method-wrapper '__str__' of exceptions.TypeError object>"
p27
sS'__format__'
p28
S'<built-in method __format__ of exceptions.TypeError object>'
p29
sS'__getattribute__'
p30
S"<method-wrapper '__getattribute__' of exceptions.TypeError object>"
p31
sS'__class__'
p32
S"<type 'exceptions.TypeError'>"
p33
sS'__unicode__'
p34
S'<built-in method __unicode__ of exceptions.TypeError object>'
p35
sS'__delattr__'
p36
S"<method-wrapper '__delattr__' of exceptions.TypeError object>"
p37
sS'__subclasshook__'
p38
S'<built-in method __subclasshook__ of type object>'
p39
sS'__repr__'
p40
S"<method-wrapper '__repr__' of exceptions.TypeError object>"
p41
sS'args'
p42
S'("unsupported operand type(s) for -: \'str\' and \'str\'",)'
p43
sS'__dict__'
p44
S'{}'
p45
sS'__sizeof__'
p46
S'<built-in method __sizeof__ of exceptions.TypeError object>'
p47
sS'__doc__'
p48
S"'Inappropriate argument type.'"
p49
sS'__init__'
p50
S"<method-wrapper '__init__' of exceptions.TypeError object>"
p51
sS'__new__'
p52
S'<built-in method __new__ of type object>'
p53
ssS'evalue'
p54
S"unsupported operand type(s) for -: 'str' and 'str'"
p55
sS'request'
p56
cgluon.html
XML_unpickle
p57
(S'spf\x00\x00<div><table><tr><td style="font-weight:bold;vertical-align:top;">ajax</td><td style="vertical-align:top;">:</td><td><div>True</div></td></tr><tr><td style="font-weight:bold;vertical-align:top;">application</td><td style="vertical-align:top;">:</td><td><div>mess_menu_v1</div></td></tr><tr><td style="font-weight:bold;vertical-align:top;">args</td><td style="vertical-align:top;">:</td><td><div><table><tr><td><div>delete</div></td></tr><tr><td><div>reserve_food</div></td></tr><tr><td><div>23</div></td></tr></table></div></td></tr><tr><td style="font-weight:bold;vertical-align:top;">cid</td><td style="vertical-align:top;">:</td><td><div>w2p_none</div></td></tr><tr><td style="font-weight:bold;vertical-align:top;">client</td><td style="vertical-align:top;">:</td><td><div>127.0.0.1</div></td></tr><tr><td style="font-weight:bold;vertical-align:top;">controller</td><td style="vertical-align:top;">:</td><td><div>default</div></td></tr><tr><td style="font-weight:bold;vertical-align:top;">cookies</td><td style="vertical-align:top;">:</td><td><div><table><tr><td style="font-weight:bold;vertical-align:top;">session_id_admin</td><td style="vertical-align:top;">:</td><td><div>127.0.0.1-6a864d1c-68f5-4b42-a991-a6db64041908<table><tr><td style="font-weight:bold;vertical-align:top;">comment</td><td style="vertical-align:top;">:</td><td><div></div></td></tr><tr><td style="font-weight:bold;vertical-align:top;">domain</td><td style="vertical-align:top;">:</td><td><div></div></td></tr><tr><td style="font-weight:bold;vertical-align:top;">expires</td><td style="vertical-align:top;">:</td><td><div></div></td></tr><tr><td style="font-weight:bold;vertical-align:top;">httponly</td><td style="vertical-align:top;">:</td><td><div></div></td></tr><tr><td style="font-weight:bold;vertical-align:top;">max-age</td><td style="vertical-align:top;">:</td><td><div></div></td></tr><tr><td style="font-weight:bold;vertical-align:top;">path</td><td style="vertical-align:top;">:</td><td><div></div></td></tr><tr><td style="font-weight:bold;vertical-align:top;">secure</td><td style="vertical-align:top;">:</td><td><div></div></td></tr><tr><td style="font-weight:bold;vertical-align:top;">version</td><td style="vertical-align:top;">:</td><td><div></div></td></tr></table></div></td></tr><tr><td style="font-weight:bold;vertical-align:top;">session_id_mess_menu_v1</td><td style="vertical-align:top;">:</td><td><div>127.0.0.1-726bd79c-46f8-4a24-b6b0-298c86a45371<table><tr><td style="font-weight:bold;vertical-align:top;">comment</td><td style="vertical-align:top;">:</td><td><div></div></td></tr><tr><td style="font-weight:bold;vertical-align:top;">domain</td><td style="vertical-align:top;">:</td><td><div></div></td></tr><tr><td style="font-weight:bold;vertical-align:top;">expires</td><td style="vertical-align:top;">:</td><td><div></div></td></tr><tr><td style="font-weight:bold;vertical-align:top;">httponly</td><td style="vertical-align:top;">:</td><td><div></div></td></tr><tr><td style="font-weight:bold;vertical-align:top;">max-age</td><td style="vertical-align:top;">:</td><td><div></div></td></tr><tr><td style="font-weight:bold;vertical-align:top;">path</td><td style="vertical-align:top;">:</td><td><div></div></td></tr><tr><td style="font-weight:bold;vertical-align:top;">secure</td><td style="vertical-align:top;">:</td><td><div></div></td></tr><tr><td style="font-weight:bold;vertical-align:top;">version</td><td style="vertical-align:top;">:</td><td><div></div></td></tr></table></div></td></tr><tr><td style="font-weight:bold;vertical-align:top;">session_id_welcome</td><td style="vertical-align:top;">:</td><td><div>127.0.0.1-0754d252-1353-43f7-a937-564aa70c352a<table><tr><td style="font-weight:bold;vertical-align:top;">comment</td><td style="vertical-align:top;">:</td><td><div></div></td></tr><tr><td style="font-weight:bold;vertical-align:top;">domain</td><td style="vertical-align:top;">:</td><td><div></div></td></tr><tr><td style="font-weight:bold;vertical-align:top;">expires</td><td style="vertical-align:top;">:</td><td><div></div></td></tr><tr><td style="font-weight:bold;vertical-align:top;">httponly</td><td style="vertical-align:top;">:</td><td><div></div></td></tr><tr><td style="font-weight:bold;vertical-align:top;">max-age</td><td style="vertical-align:top;">:</td><td><div></div></td></tr><tr><td style="font-weight:bold;vertical-align:top;">path</td><td style="vertical-align:top;">:</td><td><div></div></td></tr><tr><td style="font-weight:bold;vertical-align:top;">secure</td><td style="vertical-align:top;">:</td><td><div></div></td></tr><tr><td style="font-weight:bold;vertical-align:top;">version</td><td style="vertical-align:top;">:</td><td><div></div></td></tr></table></div></td></tr></table></div></td></tr><tr><td style="font-weight:bold;vertical-align:top;">env</td><td style="vertical-align:top;">:</td><td><div><table><tr><td style="font-weight:bold;vertical-align:top;">CONTENT_LENGTH</td><td style="vertical-align:top;">:</td><td><div>0</div></td></tr><tr><td style="font-weight:bold;vertical-align:top;">HTTP_ACCEPT</td><td style="vertical-align:top;">:</td><td><div>*/*</div></td></tr><tr><td style="font-weight:bold;vertical-align:top;">HTTP_ACCEPT_ENCODING</td><td style="vertical-align:top;">:</td><td><div>gzip, deflate</div></td></tr><tr><td style="font-weight:bold;vertical-align:top;">HTTP_ACCEPT_LANGUAGE</td><td style="vertical-align:top;">:</td><td><div>en-US,en;q=0.5</div></td></tr><tr><td style="font-weight:bold;vertical-align:top;">HTTP_CACHE_CONTROL</td><td style="vertical-align:top;">:</td><td><div>no-cache</div></td></tr><tr><td style="font-weight:bold;vertical-align:top;">HTTP_CONNECTION</td><td style="vertical-align:top;">:</td><td><div>keep-alive</div></td></tr><tr><td style="font-weight:bold;vertical-align:top;">HTTP_CONTENT_LENGTH</td><td style="vertical-align:top;">:</td><td><div>0</div></td></tr><tr><td style="font-weight:bold;vertical-align:top;">HTTP_COOKIE</td><td style="vertical-align:top;">:</td><td><div>session_id_welcome=127.0.0.1-0754d252-1353-43f7-a937-564aa70c352a; session_id_admin=127.0.0.1-6a864d1c-68f5-4b42-a991-a6db64041908; session_id_mess_menu_v1=127.0.0.1-726bd79c-46f8-4a24-b6b0-298c86a45371</div></td></tr><tr><td style="font-weight:bold;vertical-align:top;">HTTP_HOST</td><td style="vertical-align:top;">:</td><td><div>127.0.0.1:8000</div></td></tr><tr><td style="font-weight:bold;vertical-align:top;">HTTP_PRAGMA</td><td style="vertical-align:top;">:</td><td><div>no-cache</div></td></tr><tr><td style="font-weight:bold;vertical-align:top;">HTTP_REFERER</td><td style="vertical-align:top;">:</td><td><div>http://127.0.0.1:8000/mess_menu_v1/default/cancel_meal?keywords=&amp;order=reserve_food.reserve_date&amp;_signature=4c80d3f4d5d65383b92913c03feff9549e57bb40</div></td></tr><tr><td style="font-weight:bold;vertical-align:top;">HTTP_USER_AGENT</td><td style="vertical-align:top;">:</td><td><div>Mozilla/5.0 (X11; Ubuntu; Linux i686; rv:40.0) Gecko/20100101 Firefox/40.0</div></td></tr><tr><td style="font-weight:bold;vertical-align:top;">HTTP_WEB2PY_COMPONENT_ELEMENT</td><td style="vertical-align:top;">:</td><td><div>w2p_none</div></td></tr><tr><td style="font-weight:bold;vertical-align:top;">HTTP_WEB2PY_COMPONENT_LOCATION</td><td style="vertical-align:top;">:</td><td><div>http://127.0.0.1:8000/mess_menu_v1/default/cancel_meal?keywords=&amp;order=reserve_food.reserve_date&amp;_signature=4c80d3f4d5d65383b92913c03feff9549e57bb40</div></td></tr><tr><td style="font-weight:bold;vertical-align:top;">HTTP_X_REQUESTED_WITH</td><td style="vertical-align:top;">:</td><td><div>XMLHttpRequest</div></td></tr><tr><td style="font-weight:bold;vertical-align:top;">PATH_INFO</td><td style="vertical-align:top;">:</td><td><div>/mess_menu_v1/default/cancel_meal/delete/reserve_food/23</div></td></tr><tr><td style="font-weight:bold;vertical-align:top;">QUERY_STRING</td><td style="vertical-align:top;">:</td><td><div>keywords=&amp;order=reserve_food.reserve_date&amp;_signature=5c773825c97c7ec67c8b96fbc297cbd81304a787</div></td></tr><tr><td style="font-weight:bold;vertical-align:top;">REMOTE_ADDR</td><td style="vertical-align:top;">:</td><td><div>127.0.0.1</div></td></tr><tr><td style="font-weight:bold;vertical-align:top;">REMOTE_PORT</td><td style="vertical-align:top;">:</td><td><div>49146</div></td></tr><tr><td style="font-weight:bold;vertical-align:top;">REQUEST_METHOD</td><td style="vertical-align:top;">:</td><td><div>POST</div></td></tr><tr><td style="font-weight:bold;vertical-align:top;">SCRIPT_NAME</td><td style="vertical-align:top;">:</td><td><div></div></td></tr><tr><td style="font-weight:bold;vertical-align:top;">SERVER_NAME</td><td style="vertical-align:top;">:</td><td><div>scorpio</div></td></tr><tr><td style="font-weight:bold;vertical-align:top;">SERVER_PORT</td><td style="vertical-align:top;">:</td><td><div>8000</div></td></tr><tr><td style="font-weight:bold;vertical-align:top;">SERVER_PROTOCOL</td><td style="vertical-align:top;">:</td><td><div>HTTP/1.1</div></td></tr><tr><td style="font-weight:bold;vertical-align:top;">SERVER_SOFTWARE</td><td style="vertical-align:top;">:</td><td><div>Rocket 1.2.6</div></td></tr><tr><td style="font-weight:bold;vertical-align:top;">app_folders</td><td style="vertical-align:top;">:</td><td><div>set([&#x27;/home/scorpio/web2py/applications/welcome/&#x27;, &#x27;/home/scorpio/web2py/applications/mess_menu_v1/&#x27;, &#x27;/home/scorpio/web2py/applications/examples/&#x27;, &#x27;/home/scorpio/web2py/applications/admin/&#x27;])</div></td></tr><tr><td style="font-weight:bold;vertical-align:top;">applications_parent</td><td style="vertical-align:top;">:</td><td><div>/home/scorpio/web2py</div></td></tr><tr><td style="font-weight:bold;vertical-align:top;">cmd_args</td><td style="vertical-align:top;">:</td><td><div><table></table></div></td></tr><tr><td style="font-weight:bold;vertical-align:top;">cmd_options</td><td style="vertical-align:top;">:</td><td><div>&lt;Values at 0xb5b89bec: {&#x27;verbose&#x27;: False, &#x27;ip&#x27;: &#x27;127.0.0.1&#x27;, &#x27;debuglevel&#x27;: 30, &#x27;with_scheduler&#x27;: False, &#x27;ips&#x27;: [&#x27;127.0.1.1&#x27;], &#x27;shutdown_timeout&#x27;: 5, &#x27;taskbar&#x27;: False, &#x27;with_coverage&#x27;: False, &#x27;scheduler_groups&#x27;: None, &#x27;port&#x27;: 8000, &#x27;maxthreads&#x27;: None, &#x27;softcron&#x27;: False, &#x27;server_name&#x27;: &#x27;scorpio&#x27;, &#x27;bpython&#x27;: False, &#x27;nogui&#x27;: False, &#x27;pid_filename&#x27;: &#x27;httpserver.pid&#x27;, &#x27;print_errors&#x27;: False, &#x27;extcron&#x27;: False, &#x27;runcron&#x27;: False, &#x27;run_system_tests&#x27;: False, &#x27;test&#x27;: None, &#x27;folder&#x27;: &#x27;/home/scorpio/web2py&#x27;, &#x27;config&#x27;: &#x27;&#x27;, &#x27;minthreads&#x27;: None, &#x27;shell&#x27;: None, &#x27;run&#x27;: &#x27;&#x27;, &#x27;log_filename&#x27;: &#x27;httpserver.log&#x27;, &#x27;profiler_dir&#x27;: None, &#x27;args&#x27;: [&#x27;&#x27;], &#x27;socket_timeout&#x27;: 5, &#x27;ssl_ca_certificate&#x27;: None, &#x27;scheduler&#x27;: None, &#x27;interfaces&#x27;: None, &#x27;ssl_private_key&#x27;: &#x27;&#x27;, &#x27;gae&#x27;: None, &#x27;password&#x27;: &#x27;&lt;ask&gt;&#x27;, &#x27;request_queue_size&#x27;: 5, &#x27;ssl_certificate&#x27;: &#x27;&#x27;, &#x27;cronjob&#x27;: False, &#x27;numthreads&#x27;: None, &#x27;quiet&#x27;: False, &#x27;import_models&#x27;: False, &#x27;timeout&#x27;: 10, &#x27;plain&#x27;: False, &#x27;nobanner&#x27;: False}&gt;</div></td></tr><tr><td style="font-weight:bold;vertical-align:top;">content_length</td><td style="vertical-align:top;">:</td><td><div>0</div></td></tr><tr><td style="font-weight:bold;vertical-align:top;">db_sessions</td><td style="vertical-align:top;">:</td><td><div>set([])</div></td></tr><tr><td style="font-weight:bold;vertical-align:top;">debugging</td><td style="vertical-align:top;">:</td><td><div>True</div></td></tr><tr><td style="font-weight:bold;vertical-align:top;">gluon_parent</td><td style="vertical-align:top;">:</td><td><div>/home/scorpio/web2py</div></td></tr><tr><td style="font-weight:bold;vertical-align:top;">http_accept</td><td style="vertical-align:top;">:</td><td><div>*/*</div></td></tr><tr><td style="font-weight:bold;vertical-align:top;">http_accept_encoding</td><td style="vertical-align:top;">:</td><td><div>gzip, deflate</div></td></tr><tr><td style="font-weight:bold;vertical-align:top;">http_accept_language</td><td style="vertical-align:top;">:</td><td><div>en-US,en;q=0.5</div></td></tr><tr><td style="font-weight:bold;vertical-align:top;">http_cache_control</td><td style="vertical-align:top;">:</td><td><div>no-cache</div></td></tr><tr><td style="font-weight:bold;vertical-align:top;">http_connection</td><td style="vertical-align:top;">:</td><td><div>keep-alive</div></td></tr><tr><td style="font-weight:bold;vertical-align:top;">http_content_length</td><td style="vertical-align:top;">:</td><td><div>0</div></td></tr><tr><td style="font-weight:bold;vertical-align:top;">http_cookie</td><td style="vertical-align:top;">:</td><td><div>session_id_welcome=127.0.0.1-0754d252-1353-43f7-a937-564aa70c352a; session_id_admin=127.0.0.1-6a864d1c-68f5-4b42-a991-a6db64041908; session_id_mess_menu_v1=127.0.0.1-726bd79c-46f8-4a24-b6b0-298c86a45371</div></td></tr><tr><td style="font-weight:bold;vertical-align:top;">http_host</td><td style="vertical-align:top;">:</td><td><div>127.0.0.1:8000</div></td></tr><tr><td style="font-weight:bold;vertical-align:top;">http_pragma</td><td style="vertical-align:top;">:</td><td><div>no-cache</div></td></tr><tr><td style="font-weight:bold;vertical-align:top;">http_referer</td><td style="vertical-align:top;">:</td><td><div>http://127.0.0.1:8000/mess_menu_v1/default/cancel_meal?keywords=&amp;order=reserve_food.reserve_date&amp;_signature=4c80d3f4d5d65383b92913c03feff9549e57bb40</div></td></tr><tr><td style="font-weight:bold;vertical-align:top;">http_user_agent</td><td style="vertical-align:top;">:</td><td><div>Mozilla/5.0 (X11; Ubuntu; Linux i686; rv:40.0) Gecko/20100101 Firefox/40.0</div></td></tr><tr><td style="font-weight:bold;vertical-align:top;">http_web2py_component_element</td><td style="vertical-align:top;">:</td><td><div>w2p_none</div></td></tr><tr><td style="font-weight:bold;vertical-align:top;">http_web2py_component_location</td><td style="vertical-align:top;">:</td><td><div>http://127.0.0.1:8000/mess_menu_v1/default/cancel_meal?keywords=&amp;order=reserve_food.reserve_date&amp;_signature=4c80d3f4d5d65383b92913c03feff9549e57bb40</div></td></tr><tr><td style="font-weight:bold;vertical-align:top;">http_x_requested_with</td><td style="vertical-align:top;">:</td><td><div>XMLHttpRequest</div></td></tr><tr><td style="font-weight:bold;vertical-align:top;">is_jython</td><td style="vertical-align:top;">:</td><td><div>False</div></td></tr><tr><td style="font-weight:bold;vertical-align:top;">is_pypy</td><td style="vertical-align:top;">:</td><td><div>False</div></td></tr><tr><td style="font-weight:bold;vertical-align:top;">is_source</td><td style="vertical-align:top;">:</td><td><div>True</div></td></tr><tr><td style="font-weight:bold;vertical-align:top;">local_hosts</td><td style="vertical-align:top;">:</td><td><div><table><tr><td><div>scorpio</div></td></tr><tr><td><div>::1</div></td></tr><tr><td><div>127.0.1.1</div></td></tr><tr><td><div>::ffff:127.0.0.1</div></td></tr><tr><td><div>127.0.0.1</div></td></tr></table></div></td></tr><tr><td style="font-weight:bold;vertical-align:top;">path_info</td><td style="vertical-align:top;">:</td><td><div>/mess_menu_v1/default/cancel_meal/delete/reserve_food/23</div></td></tr><tr><td style="font-weight:bold;vertical-align:top;">query_string</td><td style="vertical-align:top;">:</td><td><div>keywords=&amp;order=reserve_food.reserve_date&amp;_signature=5c773825c97c7ec67c8b96fbc297cbd81304a787</div></td></tr><tr><td style="font-weight:bold;vertical-align:top;">remote_addr</td><td style="vertical-align:top;">:</td><td><div>127.0.0.1</div></td></tr><tr><td style="font-weight:bold;vertical-align:top;">remote_port</td><td style="vertical-align:top;">:</td><td><div>49146</div></td></tr><tr><td style="font-weight:bold;vertical-align:top;">request_method</td><td style="vertical-align:top;">:</td><td><div>POST</div></td></tr><tr><td style="font-weight:bold;vertical-align:top;">request_uri</td><td style="vertical-align:top;">:</td><td><div>/mess_menu_v1/default/cancel_meal/delete/reserve_food/23?keywords=&amp;order=reserve_food.reserve_date&amp;_signature=5c773825c97c7ec67c8b96fbc297cbd81304a787</div></td></tr><tr><td style="font-weight:bold;vertical-align:top;">script_name</td><td style="vertical-align:top;">:</td><td><div></div></td></tr><tr><td style="font-weight:bold;vertical-align:top;">server_name</td><td style="vertical-align:top;">:</td><td><div>scorpio</div></td></tr><tr><td style="font-weight:bold;vertical-align:top;">server_port</td><td style="vertical-align:top;">:</td><td><div>8000</div></td></tr><tr><td style="font-weight:bold;vertical-align:top;">server_protocol</td><td style="vertical-align:top;">:</td><td><div>HTTP/1.1</div></td></tr><tr><td style="font-weight:bold;vertical-align:top;">server_software</td><td style="vertical-align:top;">:</td><td><div>Rocket 1.2.6</div></td></tr><tr><td style="font-weight:bold;vertical-align:top;">web2py_path</td><td style="vertical-align:top;">:</td><td><div>/home/scorpio/web2py</div></td></tr><tr><td style="font-weight:bold;vertical-align:top;">web2py_version</td><td style="vertical-align:top;">:</td><td><div>2.12.3-stable+timestamp.2015.08.19.00.18.03</div></td></tr><tr><td style="font-weight:bold;vertical-align:top;">wsgi.errors</td><td style="vertical-align:top;">:</td><td><div>&lt;open file &#x27;&lt;stderr&gt;&#x27;, mode &#x27;w&#x27; at 0xb74f90d0&gt;</div></td></tr><tr><td style="font-weight:bold;vertical-align:top;">wsgi.file_wrapper</td><td style="vertical-align:top;">:</td><td><div>&lt;class wsgiref.util.FileWrapper at 0xb694902c&gt;</div></td></tr><tr><td style="font-weight:bold;vertical-align:top;">wsgi.input</td><td style="vertical-align:top;">:</td><td><div>&lt;socket._fileobject object at 0xa644ce6c&gt;</div></td></tr><tr><td style="font-weight:bold;vertical-align:top;">wsgi.multiprocess</td><td style="vertical-align:top;">:</td><td><div>False</div></td></tr><tr><td style="font-weight:bold;vertical-align:top;">wsgi.multithread</td><td style="vertical-align:top;">:</td><td><div>True</div></td></tr><tr><td style="font-weight:bold;vertical-align:top;">wsgi.run_once</td><td style="vertical-align:top;">:</td><td><div>False</div></td></tr><tr><td style="font-weight:bold;vertical-align:top;">wsgi.url_scheme</td><td style="vertical-align:top;">:</td><td><div>http</div></td></tr><tr><td style="font-weight:bold;vertical-align:top;">wsgi.version</td><td style="vertical-align:top;">:</td><td><div><table><tr><td><div>1</div></td></tr><tr><td><div>0</div></td></tr></table></div></td></tr><tr><td style="font-weight:bold;vertical-align:top;">wsgi_errors</td><td style="vertical-align:top;">:</td><td><div>&lt;open file &#x27;&lt;stderr&gt;&#x27;, mode &#x27;w&#x27; at 0xb74f90d0&gt;</div></td></tr><tr><td style="font-weight:bold;vertical-align:top;">wsgi_file_wrapper</td><td style="vertical-align:top;">:</td><td><div>&lt;class wsgiref.util.FileWrapper at 0xb694902c&gt;</div></td></tr><tr><td style="font-weight:bold;vertical-align:top;">wsgi_input</td><td style="vertical-align:top;">:</td><td><div>&lt;socket._fileobject object at 0xa644ce6c&gt;</div></td></tr><tr><td style="font-weight:bold;vertical-align:top;">wsgi_multiprocess</td><td style="vertical-align:top;">:</td><td><div>False</div></td></tr><tr><td style="font-weight:bold;vertical-align:top;">wsgi_multithread</td><td style="vertical-align:top;">:</td><td><div>True</div></td></tr><tr><td style="font-weight:bold;vertical-align:top;">wsgi_run_once</td><td style="vertical-align:top;">:</td><td><div>False</div></td></tr><tr><td style="font-weight:bold;vertical-align:top;">wsgi_url_scheme</td><td style="vertical-align:top;">:</td><td><div>http</div></td></tr><tr><td style="font-weight:bold;vertical-align:top;">wsgi_version</td><td style="vertical-align:top;">:</td><td><div><table><tr><td><div>1</div></td></tr><tr><td><div>0</div></td></tr></table></div></td></tr></table></div></td></tr><tr><td style="font-weight:bold;vertical-align:top;">extension</td><td style="vertical-align:top;">:</td><td><div>html</div></td></tr><tr><td style="font-weight:bold;vertical-align:top;">folder</td><td style="vertical-align:top;">:</td><td><div>/home/scorpio/web2py/applications/mess_menu_v1/</div></td></tr><tr><td style="font-weight:bold;vertical-align:top;">function</td><td style="vertical-align:top;">:</td><td><div>cancel_meal</div></td></tr><tr><td style="font-weight:bold;vertical-align:top;">global_settings</td><td style="vertical-align:top;">:</td><td><div><table><tr><td style="font-weight:bold;vertical-align:top;">app_folders</td><td style="vertical-align:top;">:</td><td><div>set([&#x27;/home/scorpio/web2py/applications/welcome/&#x27;, &#x27;/home/scorpio/web2py/applications/mess_menu_v1/&#x27;, &#x27;/home/scorpio/web2py/applications/examples/&#x27;, &#x27;/home/scorpio/web2py/applications/admin/&#x27;])</div></td></tr><tr><td style="font-weight:bold;vertical-align:top;">applications_parent</td><td style="vertical-align:top;">:</td><td><div>/home/scorpio/web2py</div></td></tr><tr><td style="font-weight:bold;vertical-align:top;">cmd_args</td><td style="vertical-align:top;">:</td><td><div><table></table></div></td></tr><tr><td style="font-weight:bold;vertical-align:top;">cmd_options</td><td style="vertical-align:top;">:</td><td><div>&lt;Values at 0xb5b89bec: {&#x27;verbose&#x27;: False, &#x27;ip&#x27;: &#x27;127.0.0.1&#x27;, &#x27;debuglevel&#x27;: 30, &#x27;with_scheduler&#x27;: False, &#x27;ips&#x27;: [&#x27;127.0.1.1&#x27;], &#x27;shutdown_timeout&#x27;: 5, &#x27;taskbar&#x27;: False, &#x27;with_coverage&#x27;: False, &#x27;scheduler_groups&#x27;: None, &#x27;port&#x27;: 8000, &#x27;maxthreads&#x27;: None, &#x27;softcron&#x27;: False, &#x27;server_name&#x27;: &#x27;scorpio&#x27;, &#x27;bpython&#x27;: False, &#x27;nogui&#x27;: False, &#x27;pid_filename&#x27;: &#x27;httpserver.pid&#x27;, &#x27;print_errors&#x27;: False, &#x27;extcron&#x27;: False, &#x27;runcron&#x27;: False, &#x27;run_system_tests&#x27;: False, &#x27;test&#x27;: None, &#x27;folder&#x27;: &#x27;/home/scorpio/web2py&#x27;, &#x27;config&#x27;: &#x27;&#x27;, &#x27;minthreads&#x27;: None, &#x27;shell&#x27;: None, &#x27;run&#x27;: &#x27;&#x27;, &#x27;log_filename&#x27;: &#x27;httpserver.log&#x27;, &#x27;profiler_dir&#x27;: None, &#x27;args&#x27;: [&#x27;&#x27;], &#x27;socket_timeout&#x27;: 5, &#x27;ssl_ca_certificate&#x27;: None, &#x27;scheduler&#x27;: None, &#x27;interfaces&#x27;: None, &#x27;ssl_private_key&#x27;: &#x27;&#x27;, &#x27;gae&#x27;: None, &#x27;password&#x27;: &#x27;&lt;ask&gt;&#x27;, &#x27;request_queue_size&#x27;: 5, &#x27;ssl_certificate&#x27;: &#x27;&#x27;, &#x27;cronjob&#x27;: False, &#x27;numthreads&#x27;: None, &#x27;quiet&#x27;: False, &#x27;import_models&#x27;: False, &#x27;timeout&#x27;: 10, &#x27;plain&#x27;: False, &#x27;nobanner&#x27;: False}&gt;</div></td></tr><tr><td style="font-weight:bold;vertical-align:top;">db_sessions</td><td style="vertical-align:top;">:</td><td><div>set([])</div></td></tr><tr><td style="font-weight:bold;vertical-align:top;">debugging</td><td style="vertical-align:top;">:</td><td><div>True</div></td></tr><tr><td style="font-weight:bold;vertical-align:top;">gluon_parent</td><td style="vertical-align:top;">:</td><td><div>/home/scorpio/web2py</div></td></tr><tr><td style="font-weight:bold;vertical-align:top;">is_jython</td><td style="vertical-align:top;">:</td><td><div>False</div></td></tr><tr><td style="font-weight:bold;vertical-align:top;">is_pypy</td><td style="vertical-align:top;">:</td><td><div>False</div></td></tr><tr><td style="font-weight:bold;vertical-align:top;">is_source</td><td style="vertical-align:top;">:</td><td><div>True</div></td></tr><tr><td style="font-weight:bold;vertical-align:top;">local_hosts</td><td style="vertical-align:top;">:</td><td><div><table><tr><td><div>scorpio</div></td></tr><tr><td><div>::1</div></td></tr><tr><td><div>127.0.1.1</div></td></tr><tr><td><div>::ffff:127.0.0.1</div></td></tr><tr><td><div>127.0.0.1</div></td></tr></table></div></td></tr><tr><td style="font-weight:bold;vertical-align:top;">web2py_version</td><td style="vertical-align:top;">:</td><td><div>2.12.3-stable+timestamp.2015.08.19.00.18.03</div></td></tr></table></div></td></tr><tr><td style="font-weight:bold;vertical-align:top;">is_https</td><td style="vertical-align:top;">:</td><td><div>False</div></td></tr><tr><td style="font-weight:bold;vertical-align:top;">is_local</td><td style="vertical-align:top;">:</td><td><div>True</div></td></tr><tr><td style="font-weight:bold;vertical-align:top;">is_restful</td><td style="vertical-align:top;">:</td><td><div>False</div></td></tr><tr><td style="font-weight:bold;vertical-align:top;">is_sheduler</td><td style="vertical-align:top;">:</td><td><div>None</div></td></tr><tr><td style="font-weight:bold;vertical-align:top;">is_shell</td><td style="vertical-align:top;">:</td><td><div>None</div></td></tr><tr><td style="font-weight:bold;vertical-align:top;">now</td><td style="vertical-align:top;">:</td><td><div>datetime.datetime(2015, 10, 10, 7, 37, 59, 737606)</div></td></tr><tr><td style="font-weight:bold;vertical-align:top;">raw_args</td><td style="vertical-align:top;">:</td><td><div>delete/reserve_food/23</div></td></tr><tr><td style="font-weight:bold;vertical-align:top;">raw_extension</td><td style="vertical-align:top;">:</td><td><div>None</div></td></tr><tr><td style="font-weight:bold;vertical-align:top;">url</td><td style="vertical-align:top;">:</td><td><div>/mess_menu_v1/default/cancel_meal/delete/reserve_food/23</div></td></tr><tr><td style="font-weight:bold;vertical-align:top;">utcnow</td><td style="vertical-align:top;">:</td><td><div>datetime.datetime(2015, 10, 10, 2, 7, 59, 737657)</div></td></tr><tr><td style="font-weight:bold;vertical-align:top;">wsgi</td><td style="vertical-align:top;">:</td><td><div>&lt;gluon.main.LazyWSGI object at 0xa5fbd7ac&gt;</div></td></tr></table></div>'
tRp58
sS'frames'
p59
(lp60
(dp61
S'file'
p62
S'/home/scorpio/web2py/gluon/restricted.py'
p63
sS'dump'
p64
(dp65
S'environment'
p66
S"{'A': <class 'gluon.html.A'>, 'ANY_OF': <class 'gluon.validators.ANY_OF'>, 'ASSIGNJS': <function ASSIGNJS>, 'AppConfig': <function AppConfig>, 'Auth': <class 'gluon.tools.Auth'>, 'B': <class 'gluon.html.B'>, 'BEAUTIFY': <class 'gluon.html.BEAUTIFY'>, 'BODY': <class 'gluon.html.BODY'>, 'BR': <class 'gluon.html.BR'>, 'BUTTON': <class 'gluon.html.BUTTON'>, ...}"
p67
sS'ccode'
p68
S'<code object <module> at 0xadebdf08, file "/home...ns/mess_menu_v1/controllers/default.py", line 10>'
p69
ssS'lnum'
p70
I227
sS'lines'
p71
(dp72
I224
S'            ccode = code'
p73
sI225
S'        else:'
p74
sI226
S'            ccode = compile2(code, layer)'
p75
sI227
S'        exec ccode in environment'
p76
sI228
S'    except HTTP:'
p77
sI229
S'        raise'
p78
sI230
S'    except RestrictedError:'
p79
sI231
S'        # do not encapsulate (obfuscate) the original RestrictedError'
p80
sI222
S'    try:'
p81
sI223
S'        if isinstance(code, types.CodeType):'
p82
ssS'call'
p83
S"(code='# -*- coding: utf-8 -*-\\n# this file is released ...()\\n\\nresponse._vars=response._caller(cancel_meal)\\n', environment={'A': <class 'gluon.html.A'>, 'ANY_OF': <class 'gluon.validators.ANY_OF'>, 'ASSIGNJS': <function ASSIGNJS>, 'AppConfig': <function AppConfig>, 'Auth': <class 'gluon.tools.Auth'>, 'B': <class 'gluon.html.B'>, 'BEAUTIFY': <class 'gluon.html.BEAUTIFY'>, 'BODY': <class 'gluon.html.BODY'>, 'BR': <class 'gluon.html.BR'>, 'BUTTON': <class 'gluon.html.BUTTON'>, ...}, layer='/home/scorpio/web2py/applications/mess_menu_v1/controllers/default.py')"
p84
sS'func'
p85
S'restricted'
p86
sa(dp87
g62
S'/home/scorpio/web2py/applications/mess_menu_v1/controllers/default.py'
p88
sg64
(dp89
sg70
I365
sg71
(dp90
I354
S''
sI355
S''
sI356
S'def call():'
p91
sI357
S'    """'
p92
sI358
S'    exposes services. for example:'
p93
sI359
S'    http://..../[app]/default/call/jsonrpc'
p94
sI360
S'    decorate with @services.jsonrpc the functions to expose'
p95
sI361
S'    supports xml, json, xmlrpc, jsonrpc, amfrpc, rss, csv'
p96
sI362
S'    """'
p97
sI363
S'    return service()'
p98
ssg83
S'()'
p99
sg85
S'<module>'
p100
sa(dp101
g62
S'/home/scorpio/web2py/gluon/globals.py'
p102
sg64
(dp103
S'self'
p104
S'undefined'
p105
sS'f'
S'<function cancel_meal>'
p106
ssg70
I412
sg71
(dp107
I416
S"        self.generic_patterns = ['*']"
p108
sI407
S"        self.flash = ''            # used by the default view layout"
p109
sI408
S'        self.meta = Storage()      # used by web2py_ajax.html'
p110
sI409
S'        self.menu = []             # used by the default view layout'
p111
sI410
S'        self.files = []            # used by web2py_ajax.html'
p112
sI411
S'        self._vars = None'
p113
sI412
S'        self._caller = lambda f: f()'
p114
sI413
S'        self._view_environment = None'
p115
sI414
S'        self._custom_commit = None'
p116
sI415
S'        self._custom_rollback = None'
p117
ssg83
S'(f=<function cancel_meal>)'
p118
sg85
S'<lambda>'
p119
sa(dp120
g62
S'/home/scorpio/web2py/gluon/tools.py'
p121
sg64
(dp122
S'action'
p123
S'<function cancel_meal>'
p124
sS'a'
S'()'
p125
sS'b'
g45
ssg70
I3774
sg71
(dp126
I3776
S'            f.__name__ = action.__name__'
p127
sI3777
S'            f.__dict__.update(action.__dict__)'
p128
sI3778
S'            return f'
p129
sI3769
S'                    flag = condition'
p130
sI3770
S'                if not flag:'
p131
sI3771
S'                    current.session.flash = self.messages.access_denied'
p132
sI3772
S'                    return call_or_redirect('
p133
sI3773
S'                        self.settings.on_failed_authorization)'
p134
sI3774
S'                return action(*a, **b)'
p135
sI3775
S'            f.__doc__ = action.__doc__'
p136
ssg83
S'(*a=(), **b={})'
p137
sg85
S'f'
sa(dp138
g62
S'/home/scorpio/web2py/applications/mess_menu_v1/controllers/default.py'
p139
sg64
(dp140
S'ondelete'
p141
g105
sS'builtinFalse'
p142
S'False'
p143
sS'create'
p144
g105
sS'editable'
p145
g105
sS'global manage_cancellation'
p146
S'<function manage_cancellation>'
p147
sS'deletable'
p148
g105
sS'builtinTrue'
p149
S'True'
p150
ssg70
I236
sg71
(dp151
I231
S"    'reserve_food.reserve_eating_place':'Booked Mess',"
p152
sI232
S"    'reserve_food.reserve_caterer':'Booked Caterer'"
p153
sI233
S'    }'
p154
sI234
S'    default_sort_order=[~db.reserve_food.reserve_date,]'
p155
sI235
S'    grid1=SQLFORM.grid(query=query, fields=fields, headers=headers, orderby=default_sort_order,'
p156
sI236
S'                create=False, deletable=True, editable=False,ondelete=manage_cancellation)'
p157
sI237
S'    return locals()'
p158
sI238
S''
sI239
S'def mess_people():'
p159
sI240
S'    return locals()'
p160
ssg83
S'()'
p161
sg85
S'cancel_meal'
p162
sa(dp163
g62
S'/home/scorpio/web2py/gluon/sqlhtml.py'
p164
sg64
(dp165
S'request.args'
p166
S"['delete', 'reserve_food', '23']"
p167
sS'table'
p168
S'<Table reserve_food (id,reserve_eating_place,reserve_caterer,reserve_date,reserve_meal,author_id)>'
p169
sS'ondelete'
p170
S'<function manage_cancellation>'
p171
sS'request'
p172
S"<Storage {'_vars': None, 'function': 'cancel_mea...home/scorpio/web2py/applications/mess_menu_v1/'}>"
p173
ssg70
I2321
sg71
(dp174
I2316
S'            return res'
p175
sI2317
S"        elif deletable and request.args(-3) == 'delete':"
p176
sI2318
S'            table = db[request.args[-2]]'
p177
sI2319
S'            if not callable(deletable):'
p178
sI2320
S'                if ondelete:'
p179
sI2321
S'                    ondelete(table, request.args[-1])'
p180
sI2322
S'                db(table[table._id.name] == request.args[-1]).delete()'
p181
sI2323
S'            else:'
p182
sI2324
S"                record = table(request.args[-1]) or redirect(URL('error'))"
p183
sI2325
S'                if deletable(record):'
p184
ssg83
S"(query=<Query (reserve_food.author_id = '3')>, fields=[<pydal.objects.Field object>, <pydal.objects.Field object>, <pydal.objects.Field object>, <pydal.objects.Field object>, <pydal.objects.Field object>], field_id=<pydal.objects.Field object>, left=None, headers={'reserve_food.reserve_caterer': 'Booked Caterer', 'reserve_food.reserve_date': 'Booking Date', 'reserve_food.reserve_eating_place': 'Booked Mess', 'reserve_food.reserve_meal': 'Booked Meals'}, orderby=[<pydal.objects.Expression object>], groupby=None, searchable=True, sortable=True, paginate=20, deletable=True, editable=False, details=True, selectable=None, create=False, csv=True, links=None, links_in_grid=True, upload=<function <lambda>>, args=[], user_signature=True, maxtextlengths={}, maxtextlength=20, onvalidation=None, onfailure=None, oncreate=None, onupdate=None, ondelete=<function manage_cancellation>, sorter_icons=(<gluon.html.XML object>, <gluon.html.XML object>), ui={'button': 'button btn btn-default', 'buttonadd': 'icon plus icon-plus glyphicon glyphicon-plus', 'buttonback': 'icon leftarrow icon-arrow-left glyphicon glyphicon-arrow-left', 'buttondelete': 'icon trash icon-trash glyphicon glyphicon-trash', 'buttonedit': 'icon pen icon-pencil glyphicon glyphicon-pencil', 'buttonexport': 'icon downarrow icon-download glyphicon glyphicon-download', 'buttontable': 'icon rightarrow icon-arrow-right glyphicon glyphicon-arrow-right', 'buttontext': 'buttontext button', 'buttonview': 'icon magnifier icon-zoom-in glyphicon glyphicon-zoom-in', 'content': '', ...}, showbuttontext=True, _class='web2py_grid', formname='web2py_grid', search_widget='default', advanced_search=True, ignore_rw=False, formstyle='bootstrap3_inline', exportclasses=None, formargs={}, createargs={}, editargs={}, viewargs={}, selectable_submit_button='Submit', buttons_placement='right', links_placement='right', noconfirm=False, cache_count=None, client_side_delete=False, ignore_common_filters=None, auto_pagination=True, use_cursor=False)"
p185
sg85
S'grid'
p186
sa(dp187
g62
S'/home/scorpio/web2py/gluon/tools.py'
p188
sg64
(dp189
S'action'
p190
S'<function manage_cancellation>'
p191
sS'a'
S"(<Table reserve_food (id,reserve_eating_place,reserve_caterer,reserve_date,reserve_meal,author_id)>, '23')"
p192
sS'b'
g45
ssg70
I3774
sg71
(dp193
I3776
S'            f.__name__ = action.__name__'
p194
sI3777
S'            f.__dict__.update(action.__dict__)'
p195
sI3778
S'            return f'
p196
sI3769
S'                    flag = condition'
p197
sI3770
S'                if not flag:'
p198
sI3771
S'                    current.session.flash = self.messages.access_denied'
p199
sI3772
S'                    return call_or_redirect('
p200
sI3773
S'                        self.settings.on_failed_authorization)'
p201
sI3774
S'                return action(*a, **b)'
p202
sI3775
S'            f.__doc__ = action.__doc__'
p203
ssg83
S"(*a=(<Table reserve_food (id,reserve_eating_place,reserve_caterer,reserve_date,reserve_meal,author_id)>, '23'), **b={})"
p204
sg85
S'f'
sa(dp205
g62
S'/home/scorpio/web2py/applications/mess_menu_v1/controllers/default.py'
p206
sg64
(dp207
S'y'
S'<Rows (1)>'
p208
sS'c'
S'<Rows (2)>'
p209
sS'].meal_rate'
p210
g105
sS'].account_curr_balance'
p211
g105
sS'caterer_b'
p212
g105
ssg70
I216
sg71
(dp213
I211
S'    mymealname=temp[0].reserve_meal'
p214
sI212
S'    cat_name=temp[0].reserve_caterer'
p215
sI213
S'    y=db(db.Meal.meal_name==mymealname).select(db.Meal.ALL)'
p216
sI214
S'    auth.user.account_curr_balance=auth.user.account_curr_balance+y[0].meal_rate'
p217
sI215
S'    c=db(db.mess_provider.caterer_name==cat_name).select(db.mess_provider.ALL)'
p218
sI216
S'    caterer_b=c[0].account_curr_balance-y[0].meal_rate'
p219
sI217
S'    db(temp[0].author_id==db.auth_user.id).update(account_curr_balance=auth.user.account_curr_balance)'
p220
sI218
S'    db(c[0].id==db.mess_provider.id).update(account_curr_balance=caterer_b)'
p221
sI219
S'    db(row_id==db.reserve_food.id).delete()'
p222
sI220
S''
ssg83
S"(table=<Table reserve_food (id,reserve_eating_place,reserve_caterer,reserve_date,reserve_meal,author_id)>, row_id='23')"
p223
sg85
S'manage_cancellation'
p224
sasS'pyver'
p225
S'Python 2.7.6: /usr/bin/python (prefix: /usr)'
p226
sS'session'
p227
g57
(S's\x80\x0f\x00\x00<div><table><tr><td style="font-weight:bold;vertical-align:top;">auth</td><td style="vertical-align:top;">:</td><td><div><table><tr><td style="font-weight:bold;vertical-align:top;">expiration</td><td style="vertical-align:top;">:</td><td><div>3600</div></td></tr><tr><td style="font-weight:bold;vertical-align:top;">hmac_key</td><td style="vertical-align:top;">:</td><td><div>c5a084e9-4261-4931-9944-cb980ed6dd63</div></td></tr><tr><td style="font-weight:bold;vertical-align:top;">last_visit</td><td style="vertical-align:top;">:</td><td><div>datetime.datetime(2015, 10, 10, 7, 33, 38, 893197)</div></td></tr><tr><td style="font-weight:bold;vertical-align:top;">remember_me</td><td style="vertical-align:top;">:</td><td><div>False</div></td></tr><tr><td style="font-weight:bold;vertical-align:top;">user</td><td style="vertical-align:top;">:</td><td><div><table><tr><td style="font-weight:bold;vertical-align:top;">account_class</td><td style="vertical-align:top;">:</td><td><div>Student</div></td></tr><tr><td style="font-weight:bold;vertical-align:top;">account_curr_balance</td><td style="vertical-align:top;">:</td><td><div>1588050</div></td></tr><tr><td style="font-weight:bold;vertical-align:top;">account_initial_balance</td><td style="vertical-align:top;">:</td><td><div>17000</div></td></tr><tr><td style="font-weight:bold;vertical-align:top;">email</td><td style="vertical-align:top;">:</td><td><div>upendra1rd@gmail.com</div></td></tr><tr><td style="font-weight:bold;vertical-align:top;">first_name</td><td style="vertical-align:top;">:</td><td><div>Upendra</div></td></tr><tr><td style="font-weight:bold;vertical-align:top;">gender</td><td style="vertical-align:top;">:</td><td><div>Male</div></td></tr><tr><td style="font-weight:bold;vertical-align:top;">id</td><td style="vertical-align:top;">:</td><td><div>3L</div></td></tr><tr><td style="font-weight:bold;vertical-align:top;">last_name</td><td style="vertical-align:top;">:</td><td><div>Kumar</div></td></tr><tr><td style="font-weight:bold;vertical-align:top;">phone_number</td><td style="vertical-align:top;">:</td><td><div>7036141002</div></td></tr><tr><td style="font-weight:bold;vertical-align:top;">preferred_caterer</td><td style="vertical-align:top;">:</td><td><div>Swathi Restaurant</div></td></tr><tr><td style="font-weight:bold;vertical-align:top;">preferred_mess</td><td style="vertical-align:top;">:</td><td><div>Creekside Girl&#x27;s Hostel</div></td></tr><tr><td style="font-weight:bold;vertical-align:top;">registration_id</td><td style="vertical-align:top;">:</td><td><div></div></td></tr><tr><td style="font-weight:bold;vertical-align:top;">registration_key</td><td style="vertical-align:top;">:</td><td><div></div></td></tr><tr><td style="font-weight:bold;vertical-align:top;">reset_password_key</td><td style="vertical-align:top;">:</td><td><div>1443762035-e4edca9a-e876-48b5-9d78-b4256dcd9fdb</div></td></tr><tr><td style="font-weight:bold;vertical-align:top;">state_name</td><td style="vertical-align:top;">:</td><td><div>Bihar</div></td></tr><tr><td style="font-weight:bold;vertical-align:top;">your_booking_preference</td><td style="vertical-align:top;">:</td><td><div>Don&#x27;t Book Food Automatically</div></td></tr></table></div></td></tr><tr><td style="font-weight:bold;vertical-align:top;">user_groups</td><td style="vertical-align:top;">:</td><td><div><table><tr><td style="font-weight:bold;vertical-align:top;">58</td><td style="vertical-align:top;">:</td><td><div>user_3</div></td></tr></table></div></td></tr></table></div></td></tr><tr><td style="font-weight:bold;vertical-align:top;">flash</td><td style="vertical-align:top;">:</td><td><div>None</div></td></tr><tr><td style="font-weight:bold;vertical-align:top;">last_orderby</td><td style="vertical-align:top;">:</td><td><div>None</div></td></tr><tr><td style="font-weight:bold;vertical-align:top;">last_query</td><td style="vertical-align:top;">:</td><td><div>db.reserve_food.id&gt;0</div></td></tr></table></div>'
tRp228
sS'etype'
p229
S"<type 'exceptions.TypeError'>"
p230
sS'date'
p231
S'Sat Oct 10 07:38:00 2015'
p232
sS'response'
p233
g57
(S's\x085\x00\x00<div><table><tr><td style="font-weight:bold;vertical-align:top;">body</td><td style="vertical-align:top;">:</td><td><div>&lt;cStringIO.StringO object at 0xa5fbd5a0&gt;</div></td></tr><tr><td style="font-weight:bold;vertical-align:top;">caterer</td><td style="vertical-align:top;">:</td><td><div><table><tr><td><div><table><tr><td><div>Number of people</div></td></tr><tr><td><div>False</div></td></tr><tr><td><div>/mess_menu_v1/default/caterer_people</div></td></tr><tr><td><div><table></table></div></td></tr></table></div></td></tr></table></div></td></tr><tr><td style="font-weight:bold;vertical-align:top;">cookies</td><td style="vertical-align:top;">:</td><td><div><table><tr><td style="font-weight:bold;vertical-align:top;">session_id_mess_menu_v1</td><td style="vertical-align:top;">:</td><td><div>127.0.0.1-726bd79c-46f8-4a24-b6b0-298c86a45371<table><tr><td style="font-weight:bold;vertical-align:top;">comment</td><td style="vertical-align:top;">:</td><td><div></div></td></tr><tr><td style="font-weight:bold;vertical-align:top;">domain</td><td style="vertical-align:top;">:</td><td><div></div></td></tr><tr><td style="font-weight:bold;vertical-align:top;">expires</td><td style="vertical-align:top;">:</td><td><div></div></td></tr><tr><td style="font-weight:bold;vertical-align:top;">httponly</td><td style="vertical-align:top;">:</td><td><div></div></td></tr><tr><td style="font-weight:bold;vertical-align:top;">max-age</td><td style="vertical-align:top;">:</td><td><div></div></td></tr><tr><td style="font-weight:bold;vertical-align:top;">path</td><td style="vertical-align:top;">:</td><td><div>/</div></td></tr><tr><td style="font-weight:bold;vertical-align:top;">secure</td><td style="vertical-align:top;">:</td><td><div></div></td></tr><tr><td style="font-weight:bold;vertical-align:top;">version</td><td style="vertical-align:top;">:</td><td><div></div></td></tr></table></div></td></tr></table></div></td></tr><tr><td style="font-weight:bold;vertical-align:top;">delimiters</td><td style="vertical-align:top;">:</td><td><div><table><tr><td><div>{{</div></td></tr><tr><td><div>}}</div></td></tr></table></div></td></tr><tr><td style="font-weight:bold;vertical-align:top;">files</td><td style="vertical-align:top;">:</td><td><div><table></table></div></td></tr><tr><td style="font-weight:bold;vertical-align:top;">flash</td><td style="vertical-align:top;">:</td><td><div></div></td></tr><tr><td style="font-weight:bold;vertical-align:top;">form_label_separator</td><td style="vertical-align:top;">:</td><td><div></div></td></tr><tr><td style="font-weight:bold;vertical-align:top;">formstyle</td><td style="vertical-align:top;">:</td><td><div>bootstrap3_inline</div></td></tr><tr><td style="font-weight:bold;vertical-align:top;">generic_patterns</td><td style="vertical-align:top;">:</td><td><div><table><tr><td><div>*</div></td></tr></table></div></td></tr><tr><td style="font-weight:bold;vertical-align:top;">google_analytics_id</td><td style="vertical-align:top;">:</td><td><div>None</div></td></tr><tr><td style="font-weight:bold;vertical-align:top;">headers</td><td style="vertical-align:top;">:</td><td><div><table><tr><td style="font-weight:bold;vertical-align:top;">X-Powered-By</td><td style="vertical-align:top;">:</td><td><div>web2py</div></td></tr></table></div></td></tr><tr><td style="font-weight:bold;vertical-align:top;">logo</td><td style="vertical-align:top;">:</td><td><div><a href="http://www.iiits.ac.in/" id="web2py-logo"><img height="55px" src="/mess_menu_v1/static/images/iiits_logo.jpg" /></a></div></td></tr><tr><td style="font-weight:bold;vertical-align:top;">managing_admin</td><td style="vertical-align:top;">:</td><td><div><table><tr><td><div><table><tr><td><div>Add/Change/Remove</div></td></tr><tr><td><div>False</div></td></tr><tr><td><div>/mess_menu_v1/default/index</div></td></tr><tr><td><div><table><tr><td><div><table><tr><td><div>People</div></td></tr><tr><td><div>False</div></td></tr><tr><td><div>/mess_menu_v1/default/admin_change_remove.html?modify=People</div></td></tr><tr><td><div>[]</div></td></tr></table></div></td></tr><tr><td><div><table><tr><td><div>Caterer</div></td></tr><tr><td><div>False</div></td></tr><tr><td><div>/mess_menu_v1/default/admin_change_remove.html?modify=Caterer</div></td></tr><tr><td><div>[]</div></td></tr></table></div></td></tr><tr><td><div><table><tr><td><div>Mess Place</div></td></tr><tr><td><div>False</div></td></tr><tr><td><div>/mess_menu_v1/default/admin_change_remove.html?modify=Mess_Place</div></td></tr><tr><td><div>[]</div></td></tr></table></div></td></tr></table></div></td></tr></table></div></td></tr><tr><td><div><table><tr><td><div>Issue Notifications</div></td></tr><tr><td><div>False</div></td></tr><tr><td><div>/mess_menu_v1/default/index</div></td></tr><tr><td><div><table></table></div></td></tr></table></div></td></tr><tr><td><div><table><tr><td><div>Approve Registration</div></td></tr><tr><td><div>False</div></td></tr><tr><td><div>/mess_menu_v1/default/index</div></td></tr><tr><td><div><table><tr><td><div><table><tr><td><div>Student</div></td></tr><tr><td><div>False</div></td></tr><tr><td><div>/mess_menu_v1/default/index</div></td></tr><tr><td><div>[]</div></td></tr></table></div></td></tr><tr><td><div><table><tr><td><div>Faculty</div></td></tr><tr><td><div>False</div></td></tr><tr><td><div>/mess_menu_v1/default/index</div></td></tr><tr><td><div>[]</div></td></tr></table></div></td></tr><tr><td><div><table><tr><td><div>Staff Members</div></td></tr><tr><td><div>False</div></td></tr><tr><td><div>/mess_menu_v1/default/index</div></td></tr><tr><td><div>[]</div></td></tr></table></div></td></tr><tr><td><div><table><tr><td><div>Mess Committee Member</div></td></tr><tr><td><div>False</div></td></tr><tr><td><div>/mess_menu_v1/default/index</div></td></tr><tr><td><div>[]</div></td></tr></table></div></td></tr><tr><td><div><table><tr><td><div>Caterer</div></td></tr><tr><td><div>False</div></td></tr><tr><td><div>/mess_menu_v1/default/index</div></td></tr><tr><td><div>[]</div></td></tr></table></div></td></tr></table></div></td></tr></table></div></td></tr><tr><td><div><table><tr><td><div>Change Mess Menu</div></td></tr><tr><td><div>False</div></td></tr><tr><td><div>/mess_menu_v1/default/index</div></td></tr><tr><td><div><table></table></div></td></tr></table></div></td></tr></table></div></td></tr><tr><td style="font-weight:bold;vertical-align:top;">menu</td><td style="vertical-align:top;">:</td><td><div><table><tr><td><div><table><tr><td><div>Home</div></td></tr><tr><td><div>False</div></td></tr><tr><td><div>/mess_menu_v1/default/index</div></td></tr><tr><td><div><table></table></div></td></tr></table></div></td></tr><tr><td><div><table><tr><td><div>Menu Details</div></td></tr><tr><td><div>False</div></td></tr><tr><td><div>/mess_menu_v1/default/mess_menu</div></td></tr><tr><td><div><table></table></div></td></tr></table></div></td></tr><tr><td><div><table><tr><td><div>Reserve/Cancel Meal</div></td></tr><tr><td><div>False</div></td></tr><tr><td><div>/mess_menu_v1/default/reserve_cancel</div></td></tr><tr><td><div><table><tr><td><div><table><tr><td><div>Reserve Meal</div></td></tr><tr><td><div>False</div></td></tr><tr><td><div>/mess_menu_v1/default/reserve_meal</div></td></tr><tr><td><div>[]</div></td></tr></table></div></td></tr><tr><td><div><table><tr><td><div>Cancel Meal</div></td></tr><tr><td><div>False</div></td></tr><tr><td><div>/mess_menu_v1/default/cancel_meal</div></td></tr><tr><td><div>[]</div></td></tr></table></div></td></tr></table></div></td></tr></table></div></td></tr><tr><td><div><table><tr><td><div>People</div></td></tr><tr><td><div>False</div></td></tr><tr><td><div>/mess_menu_v1/default/mess_people</div></td></tr><tr><td><div><table><tr><td><div><table><tr><td><div>Mess-Incharge</div></td></tr><tr><td><div>False</div></td></tr><tr><td><div>/mess_menu_v1/default/mess_incharge</div></td></tr></table></div></td></tr><tr><td><div><table><tr><td><div>Mess-Committee Members</div></td></tr><tr><td><div>False</div></td></tr><tr><td><div>/mess_menu_v1/default/mess_commitee</div></td></tr></table></div></td></tr><tr><td><div><table><tr><td><div>Caterers</div></td></tr><tr><td><div>False</div></td></tr><tr><td><div>/mess_menu_v1/default/mess_caterer</div></td></tr></table></div></td></tr></table></div></td></tr></table></div></td></tr><tr><td><div><table><tr><td><div>General Notifications</div></td></tr><tr><td><div>False</div></td></tr><tr><td><div>/mess_menu_v1/default/general_notifications</div></td></tr><tr><td><div><table></table></div></td></tr></table></div></td></tr><tr><td><div><table><tr><td><div>Complaints and Discussions</div></td></tr><tr><td><div>False</div></td></tr><tr><td><div>/mess_menu_v1/default/index</div></td></tr><tr><td><div><table><tr><td><div><table><tr><td><div>Complaint Section</div></td></tr><tr><td><div>False</div></td></tr><tr><td><div>/mess_menu_v1/default/complaint_section</div></td></tr><tr><td><div>[]</div></td></tr></table></div></td></tr><tr><td><div><table><tr><td><div>Discussion Forum</div></td></tr><tr><td><div>False</div></td></tr><tr><td><div>/mess_menu_v1/default/discussion_forum</div></td></tr><tr><td><div>[]</div></td></tr></table></div></td></tr></table></div></td></tr></table></div></td></tr><tr><td><div><table><tr><td><div>Account Details</div></td></tr><tr><td><div>False</div></td></tr><tr><td><div>/mess_menu_v1/default/account_details</div></td></tr></table></div></td></tr></table></div></td></tr><tr><td style="font-weight:bold;vertical-align:top;">meta</td><td style="vertical-align:top;">:</td><td><div><table><tr><td style="font-weight:bold;vertical-align:top;">author</td><td style="vertical-align:top;">:</td><td><div>Your Name &lt;you@example.com&gt;</div></td></tr><tr><td style="font-weight:bold;vertical-align:top;">description</td><td style="vertical-align:top;">:</td><td><div>a cool new app</div></td></tr><tr><td style="font-weight:bold;vertical-align:top;">generator</td><td style="vertical-align:top;">:</td><td><div>Web2py Web Framework</div></td></tr><tr><td style="font-weight:bold;vertical-align:top;">keywords</td><td style="vertical-align:top;">:</td><td><div>web2py, python, framework</div></td></tr></table></div></td></tr><tr><td style="font-weight:bold;vertical-align:top;">models_to_run</td><td style="vertical-align:top;">:</td><td><div><table><tr><td><div>^\\w+\\.py$</div></td></tr><tr><td><div>^default/\\w+\\.py$</div></td></tr><tr><td><div>^default/cancel_meal/\\w+\\.py$</div></td></tr></table></div></td></tr><tr><td style="font-weight:bold;vertical-align:top;">postprocessing</td><td style="vertical-align:top;">:</td><td><div><table></table></div></td></tr><tr><td style="font-weight:bold;vertical-align:top;">session_client</td><td style="vertical-align:top;">:</td><td><div>127.0.0.1</div></td></tr><tr><td style="font-weight:bold;vertical-align:top;">session_cookie_compression_level</td><td style="vertical-align:top;">:</td><td><div>None</div></td></tr><tr><td style="font-weight:bold;vertical-align:top;">session_cookie_expires</td><td style="vertical-align:top;">:</td><td><div>None</div></td></tr><tr><td style="font-weight:bold;vertical-align:top;">session_cookie_key</td><td style="vertical-align:top;">:</td><td><div>None</div></td></tr><tr><td style="font-weight:bold;vertical-align:top;">session_data_name</td><td style="vertical-align:top;">:</td><td><div>session_data_mess_menu_v1</div></td></tr><tr><td style="font-weight:bold;vertical-align:top;">session_file</td><td style="vertical-align:top;">:</td><td><div>&lt;open file &#x27;/home/scorpio/web2py/applications/mess_menu_v1/sessions/0b9/098/127.0.0.1-726bd79c-46f8-4a24-b6b0-298c86a45371&#x27;, mode &#x27;rb+&#x27; at 0xa64700d0&gt;</div></td></tr><tr><td style="font-weight:bold;vertical-align:top;">session_filename</td><td style="vertical-align:top;">:</td><td><div>/home/scorpio/web2py/applications/mess_menu_v1/sessions/127.0.0.1-726bd79c-46f8-4a24-b6b0-298c86a45371</div></td></tr><tr><td style="font-weight:bold;vertical-align:top;">session_hash</td><td style="vertical-align:top;">:</td><td><div>45636e86dcbe31122dbfef94f8292e9b</div></td></tr><tr><td style="font-weight:bold;vertical-align:top;">session_id</td><td style="vertical-align:top;">:</td><td><div>127.0.0.1-726bd79c-46f8-4a24-b6b0-298c86a45371</div></td></tr><tr><td style="font-weight:bold;vertical-align:top;">session_id_name</td><td style="vertical-align:top;">:</td><td><div>session_id_mess_menu_v1</div></td></tr><tr><td style="font-weight:bold;vertical-align:top;">session_locked</td><td style="vertical-align:top;">:</td><td><div>True</div></td></tr><tr><td style="font-weight:bold;vertical-align:top;">session_masterapp</td><td style="vertical-align:top;">:</td><td><div>mess_menu_v1</div></td></tr><tr><td style="font-weight:bold;vertical-align:top;">session_new</td><td style="vertical-align:top;">:</td><td><div>False</div></td></tr><tr><td style="font-weight:bold;vertical-align:top;">session_storage_type</td><td style="vertical-align:top;">:</td><td><div>file</div></td></tr><tr><td style="font-weight:bold;vertical-align:top;">status</td><td style="vertical-align:top;">:</td><td><div>200</div></td></tr><tr><td style="font-weight:bold;vertical-align:top;">subtitle</td><td style="vertical-align:top;">:</td><td><div></div></td></tr><tr><td style="font-weight:bold;vertical-align:top;">title</td><td style="vertical-align:top;">:</td><td><div>Feeling hungry?</div></td></tr><tr><td style="font-weight:bold;vertical-align:top;">view</td><td style="vertical-align:top;">:</td><td><div>default/cancel_meal.html</div></td></tr></table></div>'
tRp234
sS'locals'
p235
(dp236
S'c'
S'<Rows (2)>'
p237
sS'temp'
p238
S'<Rows (1)>'
p239
sS'cat_name'
p240
S"'Swathi Restaurant'"
p241
sS'mymealname'
p242
S"'Lunch'"
p243
sS'y'
S'<Rows (1)>'
p244
sS'table'
p245
S'<Table reserve_food (id,reserve_eating_place,reserve_caterer,reserve_date,reserve_meal,author_id)>'
p246
sS'row_id'
p247
S"'23'"
p248
sssS'traceback'
p249
S'Traceback (most recent call last):\n  File "/home/scorpio/web2py/gluon/restricted.py", line 227, in restricted\n    exec ccode in environment\n  File "/home/scorpio/web2py/applications/mess_menu_v1/controllers/default.py", line 365, in <module>\n  File "/home/scorpio/web2py/gluon/globals.py", line 412, in <lambda>\n    self._caller = lambda f: f()\n  File "/home/scorpio/web2py/gluon/tools.py", line 3774, in f\n    return action(*a, **b)\n  File "/home/scorpio/web2py/applications/mess_menu_v1/controllers/default.py", line 236, in cancel_meal\n    create=False, deletable=True, editable=False,ondelete=manage_cancellation)\n  File "/home/scorpio/web2py/gluon/sqlhtml.py", line 2321, in grid\n    ondelete(table, request.args[-1])\n  File "/home/scorpio/web2py/gluon/tools.py", line 3774, in f\n    return action(*a, **b)\n  File "/home/scorpio/web2py/applications/mess_menu_v1/controllers/default.py", line 216, in manage_cancellation\n    caterer_b=c[0].account_curr_balance-y[0].meal_rate\nTypeError: unsupported operand type(s) for -: \'str\' and \'str\'\n'
p250
s.